; ModuleID = '/home/demo/frameworks_base-1/cmds/incidentd/src/Section_UAS_logic.cpp'
source_filename = "/home/demo/frameworks_base-1/cmds/incidentd/src/Section_UAS_logic.cpp"
target datalayout = "e-m:e-p270:32:32-p271:32:32-p272:64:64-i64:64-f80:128-n8:16:32:64-S128"
target triple = "x86_64-unknown-linux-gnu"

%"class.std::map" = type { %"class.std::_Rb_tree" }
%"class.std::_Rb_tree" = type { %"struct.std::_Rb_tree<int, std::pair<const int, int>, std::_Select1st<std::pair<const int, int>>, std::less<int>>::_Rb_tree_impl" }
%"struct.std::_Rb_tree<int, std::pair<const int, int>, std::_Select1st<std::pair<const int, int>>, std::less<int>>::_Rb_tree_impl" = type { %"struct.std::_Rb_tree_key_compare", %"struct.std::_Rb_tree_header" }
%"struct.std::_Rb_tree_key_compare" = type { %"struct.std::less" }
%"struct.std::less" = type { i8 }
%"struct.std::_Rb_tree_header" = type { %"struct.std::_Rb_tree_node_base", i64 }
%"struct.std::_Rb_tree_node_base" = type { i32, ptr, ptr, ptr }
%class.ServiceManager = type { i8 }
%class.String8 = type { %"class.std::__cxx11::basic_string" }
%"class.std::__cxx11::basic_string" = type { %"struct.std::__cxx11::basic_string<char>::_Alloc_hider", i64, %union.anon }
%"struct.std::__cxx11::basic_string<char>::_Alloc_hider" = type { ptr }
%union.anon = type { i64, [8 x i8] }
%class.FileSection = type <{ %class.Section, ptr, i8, [7 x i8] }>
%class.Section = type { ptr, i32, i64, %class.String8 }
%"class.std::allocator" = type { i8 }
%class.unique_fd = type { i32 }
%class.FdBuffer = type { i8 }
%class.Fpipe = type { %class.unique_fd, %class.unique_fd }
%struct.__va_list_tag = type { i32, i32, ptr, ptr }
%class.GZipSection = type { %class.Section, ptr }
%class.sp = type { ptr }
%class.EncodedBuffer = type { %"class.EncodedBuffer::EditablePosition" }
%"class.EncodedBuffer::EditablePosition" = type { i8 }
%struct.WorkerThreadData = type { ptr, %"class.std::enable_shared_from_this", ptr, %class.Fpipe, %"class.std::mutex", i8, i32 }
%"class.std::enable_shared_from_this" = type { %"class.std::weak_ptr" }
%"class.std::weak_ptr" = type { %"class.std::__weak_ptr" }
%"class.std::__weak_ptr" = type { ptr, %"class.std::__weak_count" }
%"class.std::__weak_count" = type { ptr }
%"class.std::mutex" = type { %"class.std::__mutex_base" }
%"class.std::__mutex_base" = type { %union.pthread_mutex_t }
%union.pthread_mutex_t = type { %struct.__pthread_mutex_s }
%struct.__pthread_mutex_s = type { i32, i32, i32, i32, i32, i16, i16, %struct.__pthread_internal_list }
%struct.__pthread_internal_list = type { ptr, ptr }
%"class.std::unique_lock" = type <{ ptr, i8, [7 x i8] }>
%class.String16 = type { i8 }
%class.TextDumpsysSection = type <{ %class.WorkerThreadSection, ptr, %class.String16List, [7 x i8] }>
%class.WorkerThreadSection = type { %class.Section }
%class.String16List = type { i8 }
%class.sp.0 = type { ptr }
%"class.std::thread" = type { %"class.std::thread::id" }
%"class.std::thread::id" = type { i64 }
%class.anon = type { ptr, ptr, ptr }
%class.ProtoOutputStream = type { i8 }
%"class.std::unique_ptr.22" = type { %"struct.std::__uniq_ptr_data.23" }
%"struct.std::__uniq_ptr_data.23" = type { %"class.std::__uniq_ptr_impl.24" }
%"class.std::__uniq_ptr_impl.24" = type { %"class.std::tuple.25" }
%"class.std::tuple.25" = type { %"struct.std::_Tuple_impl.26" }
%"struct.std::_Tuple_impl.26" = type { %"struct.std::_Head_base.29" }
%"struct.std::_Head_base.29" = type { ptr }
%"struct.std::forward_iterator_tag" = type { i8 }
%"struct.std::random_access_iterator_tag" = type { i8 }
%class.LogSection = type <{ %class.WorkerThreadSection, i32, i8, [3 x i8], i32, [4 x i8] }>
%class.TombstoneSection = type { %class.WorkerThreadSection, ptr }
%"class.std::unique_ptr" = type { %"struct.std::__uniq_ptr_data" }
%"struct.std::__uniq_ptr_data" = type { %"class.std::__uniq_ptr_impl" }
%"class.std::__uniq_ptr_impl" = type { %"class.std::tuple" }
%"class.std::tuple" = type { %"struct.std::_Tuple_impl" }
%"struct.std::_Tuple_impl" = type { %"struct.std::_Tuple_impl.4", %"struct.std::_Head_base.5" }
%"struct.std::_Tuple_impl.4" = type { %"struct.std::_Head_base" }
%"struct.std::_Head_base" = type { ptr }
%"struct.std::_Head_base.5" = type { ptr }
%"class.std::set" = type { %"class.std::_Rb_tree.6" }
%"class.std::_Rb_tree.6" = type { %"struct.std::_Rb_tree<int, int, std::_Identity<int>, std::less<int>>::_Rb_tree_impl" }
%"struct.std::_Rb_tree<int, int, std::_Identity<int>, std::less<int>>::_Rb_tree_impl" = type { %"struct.std::_Rb_tree_key_compare", %"struct.std::_Rb_tree_header" }
%"struct.std::_Rb_tree_const_iterator" = type { ptr }
%"class.std::unique_ptr.10" = type { %"struct.std::__uniq_ptr_data.11" }
%"struct.std::__uniq_ptr_data.11" = type { %"class.std::__uniq_ptr_impl.12" }
%"class.std::__uniq_ptr_impl.12" = type { %"class.std::tuple.13" }
%"class.std::tuple.13" = type { %"struct.std::_Tuple_impl.14" }
%"struct.std::_Tuple_impl.14" = type { %"struct.std::_Head_base.17" }
%"struct.std::_Head_base.17" = type { ptr }
%class.sp.18 = type { ptr }
%struct.dirent = type { i64, i64, i16, i8, [256 x i8] }
%class.BringYourOwnSection = type { %class.WorkerThreadSection, i32, %class.sp.19 }
%class.sp.19 = type { ptr }
%"class.android::os::ParcelFileDescriptor" = type { i8 }
%"struct.std::_Rb_tree_node" = type { %"struct.std::_Rb_tree_node_base", %"struct.__gnu_cxx::__aligned_membuf" }
%"struct.__gnu_cxx::__aligned_membuf" = type { [8 x i8] }
%"struct.std::_Rb_tree_node.20" = type <{ %"struct.std::_Rb_tree_node_base", %"struct.__gnu_cxx::__aligned_membuf.21", [4 x i8] }>
%"struct.__gnu_cxx::__aligned_membuf.21" = type { [4 x i8] }
%"class.std::_Sp_counted_base" = type { ptr, i32, i32 }
%"struct.std::thread::_State_impl" = type { %"struct.std::thread::_State", %"struct.std::thread::_Invoker" }
%"struct.std::thread::_State" = type { ptr }
%"struct.std::thread::_Invoker" = type { %"class.std::tuple.30" }
%"class.std::tuple.30" = type { %"struct.std::_Tuple_impl.31" }
%"struct.std::_Tuple_impl.31" = type { %"struct.std::_Head_base.32" }
%"struct.std::_Head_base.32" = type { %class.anon }
%"struct.std::_Index_tuple" = type { i8 }
%"struct.std::__invoke_other" = type { i8 }
%"struct.std::_Identity" = type { i8 }

$_ZN7String8C2EPKc = comdat any

$_ZN7String8aSEOS_ = comdat any

$_ZN7String8D2Ev = comdat any

$_ZN7String8pLEPKc = comdat any

$_ZN9unique_fdC2Ei = comdat any

$_ZNK9unique_fd3getEv = comdat any

$_ZN5FpipeC2Ev = comdat any

$_ZN5Fpipe4initEv = comdat any

$_ZN8FdBuffer25readProcessedDataInStreamEiO9unique_fdS1_lb = comdat any

$_ZN5Fpipe7writeFdEv = comdat any

$_ZN5Fpipe6readFdEv = comdat any

$_ZN12ReportWriter15setSectionStatsERK8FdBuffer = comdat any

$_ZNK8FdBuffer8timedOutEv = comdat any

$_ZN12ReportWriter12writeSectionERK8FdBuffer = comdat any

$_ZN9unique_fdC2Ev = comdat any

$_ZN9unique_fd5resetEi = comdat any

$_ZN8FdBuffer4dataEv = comdat any

$_ZNK2spI13EncodedBufferEptEv = comdat any

$_ZN13EncodedBuffer11writeHeaderEjj = comdat any

$_ZN13EncodedBuffer16writeRawVarint32Ej = comdat any

$_ZN13EncodedBuffer12writeRawByteEh = comdat any

$_ZN13EncodedBuffer2wpEv = comdat any

$_ZNK13EncodedBuffer16EditablePosition3posEv = comdat any

$_ZN13EncodedBuffer16EditablePosition4moveEm = comdat any

$_ZNK8FdBuffer4sizeEv = comdat any

$_ZN13EncodedBuffer16EditablePosition6rewindEv = comdat any

$_ZN13EncodedBuffer4copyEmm = comdat any

$_ZNSt23enable_shared_from_thisI16WorkerThreadDataEC2Ev = comdat any

$_ZNSt5mutexC2Ev = comdat any

$_ZNSt23enable_shared_from_thisI16WorkerThreadDataED2Ev = comdat any

$_ZNSt11unique_lockISt5mutexEC2ERS0_ = comdat any

$_ZNSt11unique_lockISt5mutexED2Ev = comdat any

$_ZN12String16List3addERK8String16 = comdat any

$_ZN8String16C2EPKc = comdat any

$_Z21defaultServiceManagerv = comdat any

$_ZN14ServiceManager12checkServiceEPKc = comdat any

$_ZNK2spI7IBinderEcvbEv = comdat any

$_Z8Nanotimev = comdat any

$_Z14ReadFdToStringR9unique_fdPNSt7__cxx1112basic_stringIcSt11char_traitsIcESaIcEEE = comdat any

$_ZN17ProtoOutputStream5writeEjRKNSt7__cxx1112basic_stringIcSt11char_traitsIcESaIcEEE = comdat any

$_ZNK7String86stringEv = comdat any

$_ZNSt7__cxx1112basic_stringIcSt11char_traitsIcESaIcEEC2IS3_EEPKcRKS3_ = comdat any

$_ZN17ProtoOutputStream5writeEjl = comdat any

$_ZN17ProtoOutputStream5flushEi = comdat any

$_ZNSt6threadD2Ev = comdat any

$_ZNSt3mapIiiSt4lessIiESaISt4pairIKiiEEEC2Ev = comdat any

$_ZNSt3mapIiiSt4lessIiESaISt4pairIKiiEEED2Ev = comdat any

$_ZN19WorkerThreadSectionC2Ei = comdat any

$_Z22android_name_to_log_idPKc = comdat any

$_ZNSt10unique_ptrI11__dirstreamPFiPS0_EEC2IS3_vEES1_NSt9enable_ifIXntsr19is_lvalue_referenceIT_EE5valueEOS7_E4typeE = comdat any

$_ZNKSt10unique_ptrI11__dirstreamPFiPS0_EE3getEv = comdat any

$_Z24get_interesting_hal_pidsv = comdat any

$_ZN7android4base12StringPrintfB5cxx11EPKcz = comdat any

$_ZN7android4base8ReadlinkERKNSt7__cxx1112basic_stringIcSt11char_traitsIcESaIcEEEPS6_ = comdat any

$_ZSteqIcSt11char_traitsIcESaIcEEbRKNSt7__cxx1112basic_stringIT_T0_T1_EEPKS5_ = comdat any

$_Z8IsZygotei = comdat any

$_Z25should_dump_native_tracesPKc = comdat any

$_ZStneRKSt23_Rb_tree_const_iteratorIiES2_ = comdat any

$_ZNKSt3setIiSt4lessIiESaIiEE4findERKi = comdat any

$_ZNKSt3setIiSt4lessIiESaIiEE3endEv = comdat any

$_Z30dump_backtrace_to_file_timeoutiiii = comdat any

$_ZN8FdBuffer9readFullyEi = comdat any

$_ZSt11make_uniqueIA_cENSt9_MakeUniqIT_E7__arrayEm = comdat any

$_ZN13EncodedBuffer4readEv = comdat any

$_ZNK2spI11ProtoReaderEptEv = comdat any

$_ZNK11ProtoReader7hasNextEv = comdat any

$_ZN11ProtoReader4nextEv = comdat any

$_ZNKSt10unique_ptrIA_cSt14default_deleteIS0_EEixEm = comdat any

$_ZN17ProtoOutputStream5startEj = comdat any

$_ZN17ProtoOutputStream5writeEjPKcm = comdat any

$_ZNKSt10unique_ptrIA_cSt14default_deleteIS0_EE3getEv = comdat any

$_ZN17ProtoOutputStream3endEm = comdat any

$_ZNSt10unique_ptrIA_cSt14default_deleteIS0_EED2Ev = comdat any

$_ZNSt3setIiSt4lessIiESaIiEED2Ev = comdat any

$_ZNSt10unique_ptrI11__dirstreamPFiPS0_EED2Ev = comdat any

$_ZN7android2os20ParcelFileDescriptorC2EO9unique_fd = comdat any

$_ZNK2spI21IIncidentDumpCallbackEptEv = comdat any

$_ZNK19WorkerThreadSection12BlockingCallER9unique_fd = comdat any

$__clang_call_terminate = comdat any

$_ZN9__gnu_cxx14__alloc_traitsISaIcEcE15_S_always_equalEv = comdat any

$_ZStneRKSaIcES1_ = comdat any

$_ZSt15__alloc_on_moveISaIcEEvRT_S2_ = comdat any

$_ZNSt14pointer_traitsIPKcE10pointer_toERS0_ = comdat any

$_ZNSt16allocator_traitsISaIcEE10deallocateERS0_Pcm = comdat any

$_ZN9__gnu_cxx13new_allocatorIcE10deallocateEPcm = comdat any

$_ZNSt14pointer_traitsIPcE10pointer_toERc = comdat any

$_ZNSt11char_traitsIcE6assignERcRKc = comdat any

$_ZNSt11char_traitsIcE4copyEPcPKcm = comdat any

$_ZNSt11char_traitsIcE6lengthEPKc = comdat any

$_ZSt19__constant_string_pIcEbPKT_ = comdat any

$_ZN9__gnu_cxx11char_traitsIcE6lengthEPKc = comdat any

$_ZN9__gnu_cxx11char_traitsIcE2eqERKcS3_ = comdat any

$_ZNSt16allocator_traitsISaIcEE8max_sizeERKS0_ = comdat any

$_ZNK9__gnu_cxx13new_allocatorIcE8max_sizeEv = comdat any

$_ZNK9__gnu_cxx13new_allocatorIcE11_M_max_sizeEv = comdat any

$_ZN7String86formatEPKcz = comdat any

$_ZN2spI13EncodedBufferEC2EPS0_ = comdat any

$_ZNSt8weak_ptrI16WorkerThreadDataEC2Ev = comdat any

$_ZNSt10__weak_ptrI16WorkerThreadDataLN9__gnu_cxx12_Lock_policyE2EEC2Ev = comdat any

$_ZNSt12__weak_countILN9__gnu_cxx12_Lock_policyE2EEC2Ev = comdat any

$_ZNSt12__mutex_baseC2Ev = comdat any

$_ZN2spI7IBinderEC2EPS0_ = comdat any

$_ZNKSt6thread8joinableEv = comdat any

$_ZSteqNSt6thread2idES0_ = comdat any

$_ZNSt6thread2idC2Ev = comdat any

$_ZNSt8_Rb_treeIiSt4pairIKiiESt10_Select1stIS2_ESt4lessIiESaIS2_EEC2Ev = comdat any

$_ZNSt8_Rb_treeIiSt4pairIKiiESt10_Select1stIS2_ESt4lessIiESaIS2_EE13_Rb_tree_implIS6_Lb1EEC2Ev = comdat any

$_ZNSaISt13_Rb_tree_nodeISt4pairIKiiEEEC2Ev = comdat any

$_ZNSt20_Rb_tree_key_compareISt4lessIiEEC2Ev = comdat any

$_ZNSt15_Rb_tree_headerC2Ev = comdat any

$_ZN9__gnu_cxx13new_allocatorISt13_Rb_tree_nodeISt4pairIKiiEEEC2Ev = comdat any

$_ZNSt15_Rb_tree_header8_M_resetEv = comdat any

$_ZNSt8_Rb_treeIiSt4pairIKiiESt10_Select1stIS2_ESt4lessIiESaIS2_EED2Ev = comdat any

$_ZNSt8_Rb_treeIiSt4pairIKiiESt10_Select1stIS2_ESt4lessIiESaIS2_EE8_M_eraseEPSt13_Rb_tree_nodeIS2_E = comdat any

$_ZNSt8_Rb_treeIiSt4pairIKiiESt10_Select1stIS2_ESt4lessIiESaIS2_EE8_M_beginEv = comdat any

$_ZN9__gnu_cxx13new_allocatorISt13_Rb_tree_nodeISt4pairIKiiEEED2Ev = comdat any

$_ZNSt8_Rb_treeIiSt4pairIKiiESt10_Select1stIS2_ESt4lessIiESaIS2_EE8_S_rightEPSt18_Rb_tree_node_base = comdat any

$_ZNSt8_Rb_treeIiSt4pairIKiiESt10_Select1stIS2_ESt4lessIiESaIS2_EE7_S_leftEPSt18_Rb_tree_node_base = comdat any

$_ZNSt8_Rb_treeIiSt4pairIKiiESt10_Select1stIS2_ESt4lessIiESaIS2_EE12_M_drop_nodeEPSt13_Rb_tree_nodeIS2_E = comdat any

$_ZNSt8_Rb_treeIiSt4pairIKiiESt10_Select1stIS2_ESt4lessIiESaIS2_EE15_M_destroy_nodeEPSt13_Rb_tree_nodeIS2_E = comdat any

$_ZNSt8_Rb_treeIiSt4pairIKiiESt10_Select1stIS2_ESt4lessIiESaIS2_EE11_M_put_nodeEPSt13_Rb_tree_nodeIS2_E = comdat any

$_ZNSt16allocator_traitsISaISt13_Rb_tree_nodeISt4pairIKiiEEEE7destroyIS3_EEvRS5_PT_ = comdat any

$_ZNSt8_Rb_treeIiSt4pairIKiiESt10_Select1stIS2_ESt4lessIiESaIS2_EE21_M_get_Node_allocatorEv = comdat any

$_ZNSt13_Rb_tree_nodeISt4pairIKiiEE9_M_valptrEv = comdat any

$_ZN9__gnu_cxx13new_allocatorISt13_Rb_tree_nodeISt4pairIKiiEEE7destroyIS4_EEvPT_ = comdat any

$_ZN9__gnu_cxx16__aligned_membufISt4pairIKiiEE6_M_ptrEv = comdat any

$_ZN9__gnu_cxx16__aligned_membufISt4pairIKiiEE7_M_addrEv = comdat any

$_ZNSt16allocator_traitsISaISt13_Rb_tree_nodeISt4pairIKiiEEEE10deallocateERS5_PS4_m = comdat any

$_ZN9__gnu_cxx13new_allocatorISt13_Rb_tree_nodeISt4pairIKiiEEE10deallocateEPS5_m = comdat any

$_ZNKSt8_Rb_treeIiSt4pairIKiiESt10_Select1stIS2_ESt4lessIiESaIS2_EE9_M_mbeginEv = comdat any

$_ZNSt3setIiSt4lessIiESaIiEEC2Ev = comdat any

$_ZNSt8_Rb_treeIiiSt9_IdentityIiESt4lessIiESaIiEEC2Ev = comdat any

$_ZNSt8_Rb_treeIiiSt9_IdentityIiESt4lessIiESaIiEE13_Rb_tree_implIS3_Lb1EEC2Ev = comdat any

$_ZNSaISt13_Rb_tree_nodeIiEEC2Ev = comdat any

$_ZN9__gnu_cxx13new_allocatorISt13_Rb_tree_nodeIiEEC2Ev = comdat any

$_ZN2spI11ProtoReaderEC2EPS0_ = comdat any

$_ZNSt8_Rb_treeIiiSt9_IdentityIiESt4lessIiESaIiEED2Ev = comdat any

$_ZNSt8_Rb_treeIiiSt9_IdentityIiESt4lessIiESaIiEE8_M_eraseEPSt13_Rb_tree_nodeIiE = comdat any

$_ZNSt8_Rb_treeIiiSt9_IdentityIiESt4lessIiESaIiEE8_M_beginEv = comdat any

$_ZN9__gnu_cxx13new_allocatorISt13_Rb_tree_nodeIiEED2Ev = comdat any

$_ZNSt8_Rb_treeIiiSt9_IdentityIiESt4lessIiESaIiEE8_S_rightEPSt18_Rb_tree_node_base = comdat any

$_ZNSt8_Rb_treeIiiSt9_IdentityIiESt4lessIiESaIiEE7_S_leftEPSt18_Rb_tree_node_base = comdat any

$_ZNSt8_Rb_treeIiiSt9_IdentityIiESt4lessIiESaIiEE12_M_drop_nodeEPSt13_Rb_tree_nodeIiE = comdat any

$_ZNSt8_Rb_treeIiiSt9_IdentityIiESt4lessIiESaIiEE15_M_destroy_nodeEPSt13_Rb_tree_nodeIiE = comdat any

$_ZNSt8_Rb_treeIiiSt9_IdentityIiESt4lessIiESaIiEE11_M_put_nodeEPSt13_Rb_tree_nodeIiE = comdat any

$_ZNSt16allocator_traitsISaISt13_Rb_tree_nodeIiEEE7destroyIiEEvRS2_PT_ = comdat any

$_ZNSt8_Rb_treeIiiSt9_IdentityIiESt4lessIiESaIiEE21_M_get_Node_allocatorEv = comdat any

$_ZNSt13_Rb_tree_nodeIiE9_M_valptrEv = comdat any

$_ZN9__gnu_cxx13new_allocatorISt13_Rb_tree_nodeIiEE7destroyIiEEvPT_ = comdat any

$_ZN9__gnu_cxx16__aligned_membufIiE6_M_ptrEv = comdat any

$_ZN9__gnu_cxx16__aligned_membufIiE7_M_addrEv = comdat any

$_ZNSt16allocator_traitsISaISt13_Rb_tree_nodeIiEEE10deallocateERS2_PS1_m = comdat any

$_ZN9__gnu_cxx13new_allocatorISt13_Rb_tree_nodeIiEE10deallocateEPS2_m = comdat any

$_ZNKSt8_Rb_treeIiiSt9_IdentityIiESt4lessIiESaIiEE9_M_mbeginEv = comdat any

$_ZN9__gnu_cxx13new_allocatorIcEC2Ev = comdat any

$_ZN9__gnu_cxx13new_allocatorIcED2Ev = comdat any

$_ZNSt7__cxx1112basic_stringIcSt11char_traitsIcESaIcEE12_M_constructIPKcEEvT_S8_St20forward_iterator_tag = comdat any

$_ZN9__gnu_cxx13new_allocatorIcEC2ERKS1_ = comdat any

$_ZN9__gnu_cxx17__is_null_pointerIKcEEbPT_ = comdat any

$_ZSt8distanceIPKcENSt15iterator_traitsIT_E15difference_typeES3_S3_ = comdat any

$_ZSt10__distanceIPKcENSt15iterator_traitsIT_E15difference_typeES3_S3_St26random_access_iterator_tag = comdat any

$_ZSt19__iterator_categoryIPKcENSt15iterator_traitsIT_E17iterator_categoryERKS3_ = comdat any

$_ZNSt10__weak_ptrI16WorkerThreadDataLN9__gnu_cxx12_Lock_policyE2EED2Ev = comdat any

$_ZNSt12__weak_countILN9__gnu_cxx12_Lock_policyE2EED2Ev = comdat any

$_ZNSt16_Sp_counted_baseILN9__gnu_cxx12_Lock_policyE2EE15_M_weak_releaseEv = comdat any

$_ZN9__gnu_cxx27__exchange_and_add_dispatchEPii = comdat any

$_ZN9__gnu_cxx20__is_single_threadedEv = comdat any

$_ZN9__gnu_cxx25__exchange_and_add_singleEPii = comdat any

$_ZN9__gnu_cxx18__exchange_and_addEPVii = comdat any

$_ZNSt11unique_lockISt5mutexE4lockEv = comdat any

$_ZNSt5mutex4lockEv = comdat any

$_ZNSt11unique_lockISt5mutexE6unlockEv = comdat any

$_ZNSt5mutex6unlockEv = comdat any

$_ZNSt10unique_ptrINSt6thread6_StateESt14default_deleteIS1_EEC2IS3_vEEPS1_ = comdat any

$_ZNSt10unique_ptrINSt6thread6_StateESt14default_deleteIS1_EED2Ev = comdat any

$_ZNSt6thread6_StateC2Ev = comdat any

$_ZNK2spI7IBinderEptEv = comdat any

$_ZN7IBinder4dumpEiRK12String16List = comdat any

$_ZNSt15__uniq_ptr_dataINSt6thread6_StateESt14default_deleteIS1_ELb1ELb1EECI2St15__uniq_ptr_implIS1_S3_EEPS1_ = comdat any

$_ZNSt15__uniq_ptr_implINSt6thread6_StateESt14default_deleteIS1_EEC2EPS1_ = comdat any

$_ZNSt5tupleIJPNSt6thread6_StateESt14default_deleteIS1_EEEC2ILb1ELb1EEEv = comdat any

$_ZNSt15__uniq_ptr_implINSt6thread6_StateESt14default_deleteIS1_EE6_M_ptrEv = comdat any

$_ZNSt11_Tuple_implILm0EJPNSt6thread6_StateESt14default_deleteIS1_EEEC2Ev = comdat any

$_ZNSt11_Tuple_implILm1EJSt14default_deleteINSt6thread6_StateEEEEC2Ev = comdat any

$_ZNSt10_Head_baseILm0EPNSt6thread6_StateELb0EEC2Ev = comdat any

$_ZNSt10_Head_baseILm1ESt14default_deleteINSt6thread6_StateEELb1EEC2Ev = comdat any

$_ZSt3getILm0EJPNSt6thread6_StateESt14default_deleteIS1_EEERNSt13tuple_elementIXT_ESt5tupleIJDpT0_EEE4typeERS9_ = comdat any

$_ZSt12__get_helperILm0EPNSt6thread6_StateEJSt14default_deleteIS1_EEERT0_RSt11_Tuple_implIXT_EJS5_DpT1_EE = comdat any

$_ZNSt11_Tuple_implILm0EJPNSt6thread6_StateESt14default_deleteIS1_EEE7_M_headERS5_ = comdat any

$_ZNSt10_Head_baseILm0EPNSt6thread6_StateELb0EE7_M_headERS3_ = comdat any

$_ZNSt10unique_ptrINSt6thread6_StateESt14default_deleteIS1_EE11get_deleterEv = comdat any

$_ZNKSt14default_deleteINSt6thread6_StateEEclEPS1_ = comdat any

$_ZNSt15__uniq_ptr_implINSt6thread6_StateESt14default_deleteIS1_EE10_M_deleterEv = comdat any

$_ZSt3getILm1EJPNSt6thread6_StateESt14default_deleteIS1_EEERNSt13tuple_elementIXT_ESt5tupleIJDpT0_EEE4typeERS9_ = comdat any

$_ZSt12__get_helperILm1ESt14default_deleteINSt6thread6_StateEEJEERT0_RSt11_Tuple_implIXT_EJS4_DpT1_EE = comdat any

$_ZNSt11_Tuple_implILm1EJSt14default_deleteINSt6thread6_StateEEEE7_M_headERS4_ = comdat any

$_ZNSt10_Head_baseILm1ESt14default_deleteINSt6thread6_StateEELb1EE7_M_headERS4_ = comdat any

$_ZNSt15__uniq_ptr_dataI11__dirstreamPFiPS0_ELb1ELb1EECI2St15__uniq_ptr_implIS0_S3_EIS3_EES1_OT_ = comdat any

$_ZNSt15__uniq_ptr_implI11__dirstreamPFiPS0_EEC2IS3_EES1_OT_ = comdat any

$_ZNSt5tupleIJP11__dirstreamPFiS1_EEEC2IRS1_S3_Lb1EEEOT_OT0_ = comdat any

$_ZNSt11_Tuple_implILm0EJP11__dirstreamPFiS1_EEEC2IRS1_JS3_EvEEOT_DpOT0_ = comdat any

$_ZNSt11_Tuple_implILm1EJPFiP11__dirstreamEEEC2IS3_EEOT_ = comdat any

$_ZNSt10_Head_baseILm0EP11__dirstreamLb0EEC2IRS1_EEOT_ = comdat any

$_ZNSt10_Head_baseILm1EPFiP11__dirstreamELb0EEC2IS3_EEOT_ = comdat any

$_ZNSt15__uniq_ptr_implI11__dirstreamPFiPS0_EE6_M_ptrEv = comdat any

$_ZNSt10unique_ptrI11__dirstreamPFiPS0_EE11get_deleterEv = comdat any

$_ZSt3getILm0EJP11__dirstreamPFiS1_EEERNSt13tuple_elementIXT_ESt5tupleIJDpT0_EEE4typeERS8_ = comdat any

$_ZSt12__get_helperILm0EP11__dirstreamJPFiS1_EEERT0_RSt11_Tuple_implIXT_EJS4_DpT1_EE = comdat any

$_ZNSt11_Tuple_implILm0EJP11__dirstreamPFiS1_EEE7_M_headERS4_ = comdat any

$_ZNSt10_Head_baseILm0EP11__dirstreamLb0EE7_M_headERS2_ = comdat any

$_ZNSt15__uniq_ptr_implI11__dirstreamPFiPS0_EE10_M_deleterEv = comdat any

$_ZSt3getILm1EJP11__dirstreamPFiS1_EEERNSt13tuple_elementIXT_ESt5tupleIJDpT0_EEE4typeERS8_ = comdat any

$_ZSt12__get_helperILm1EPFiP11__dirstreamEJEERT0_RSt11_Tuple_implIXT_EJS4_DpT1_EE = comdat any

$_ZNSt11_Tuple_implILm1EJPFiP11__dirstreamEEE7_M_headERS4_ = comdat any

$_ZNSt10_Head_baseILm1EPFiP11__dirstreamELb0EE7_M_headERS4_ = comdat any

$_ZNKSt15__uniq_ptr_implI11__dirstreamPFiPS0_EE6_M_ptrEv = comdat any

$_ZSt3getILm0EJP11__dirstreamPFiS1_EEERKNSt13tuple_elementIXT_ESt5tupleIJDpT0_EEE4typeERKS8_ = comdat any

$_ZSt12__get_helperILm0EP11__dirstreamJPFiS1_EEERKT0_RKSt11_Tuple_implIXT_EJS4_DpT1_EE = comdat any

$_ZNSt11_Tuple_implILm0EJP11__dirstreamPFiS1_EEE7_M_headERKS4_ = comdat any

$_ZNSt10_Head_baseILm0EP11__dirstreamLb0EE7_M_headERKS2_ = comdat any

$_ZNKSt8_Rb_treeIiiSt9_IdentityIiESt4lessIiESaIiEE4findERKi = comdat any

$_ZNKSt8_Rb_treeIiiSt9_IdentityIiESt4lessIiESaIiEE14_M_lower_boundEPKSt13_Rb_tree_nodeIiEPKSt18_Rb_tree_node_baseRKi = comdat any

$_ZNKSt8_Rb_treeIiiSt9_IdentityIiESt4lessIiESaIiEE8_M_beginEv = comdat any

$_ZNKSt8_Rb_treeIiiSt9_IdentityIiESt4lessIiESaIiEE6_M_endEv = comdat any

$_ZSteqRKSt23_Rb_tree_const_iteratorIiES2_ = comdat any

$_ZNKSt8_Rb_treeIiiSt9_IdentityIiESt4lessIiESaIiEE3endEv = comdat any

$_ZNKSt4lessIiEclERKiS2_ = comdat any

$_ZNSt8_Rb_treeIiiSt9_IdentityIiESt4lessIiESaIiEE6_S_keyEPKSt18_Rb_tree_node_base = comdat any

$_ZNSt8_Rb_treeIiiSt9_IdentityIiESt4lessIiESaIiEE6_S_keyEPKSt13_Rb_tree_nodeIiE = comdat any

$_ZNSt8_Rb_treeIiiSt9_IdentityIiESt4lessIiESaIiEE7_S_leftEPKSt18_Rb_tree_node_base = comdat any

$_ZNSt8_Rb_treeIiiSt9_IdentityIiESt4lessIiESaIiEE8_S_rightEPKSt18_Rb_tree_node_base = comdat any

$_ZNSt23_Rb_tree_const_iteratorIiEC2EPKSt18_Rb_tree_node_base = comdat any

$_ZNKSt9_IdentityIiEclERKi = comdat any

$_ZNKSt13_Rb_tree_nodeIiE9_M_valptrEv = comdat any

$_ZNK9__gnu_cxx16__aligned_membufIiE6_M_ptrEv = comdat any

$_ZNK9__gnu_cxx16__aligned_membufIiE7_M_addrEv = comdat any

$_ZNSt10unique_ptrIA_cSt14default_deleteIS0_EEC2IPcS2_vbEET_ = comdat any

$_ZNSt15__uniq_ptr_dataIcSt14default_deleteIA_cELb1ELb1EECI2St15__uniq_ptr_implIcS2_EEPc = comdat any

$_ZNSt15__uniq_ptr_implIcSt14default_deleteIA_cEEC2EPc = comdat any

$_ZNSt5tupleIJPcSt14default_deleteIA_cEEEC2ILb1ELb1EEEv = comdat any

$_ZNSt15__uniq_ptr_implIcSt14default_deleteIA_cEE6_M_ptrEv = comdat any

$_ZNSt11_Tuple_implILm0EJPcSt14default_deleteIA_cEEEC2Ev = comdat any

$_ZNSt11_Tuple_implILm1EJSt14default_deleteIA_cEEEC2Ev = comdat any

$_ZNSt10_Head_baseILm0EPcLb0EEC2Ev = comdat any

$_ZNSt10_Head_baseILm1ESt14default_deleteIA_cELb1EEC2Ev = comdat any

$_ZSt3getILm0EJPcSt14default_deleteIA_cEEERNSt13tuple_elementIXT_ESt5tupleIJDpT0_EEE4typeERS8_ = comdat any

$_ZSt12__get_helperILm0EPcJSt14default_deleteIA_cEEERT0_RSt11_Tuple_implIXT_EJS4_DpT1_EE = comdat any

$_ZNSt11_Tuple_implILm0EJPcSt14default_deleteIA_cEEE7_M_headERS4_ = comdat any

$_ZNSt10_Head_baseILm0EPcLb0EE7_M_headERS1_ = comdat any

$_ZNSt10unique_ptrIA_cSt14default_deleteIS0_EE11get_deleterEv = comdat any

$_ZNKSt14default_deleteIA_cEclIcEENSt9enable_ifIXsr14is_convertibleIPA_T_PS0_EE5valueEvE4typeEPS4_ = comdat any

$_ZNSt15__uniq_ptr_implIcSt14default_deleteIA_cEE10_M_deleterEv = comdat any

$_ZSt3getILm1EJPcSt14default_deleteIA_cEEERNSt13tuple_elementIXT_ESt5tupleIJDpT0_EEE4typeERS8_ = comdat any

$_ZSt12__get_helperILm1ESt14default_deleteIA_cEJEERT0_RSt11_Tuple_implIXT_EJS3_DpT1_EE = comdat any

$_ZNSt11_Tuple_implILm1EJSt14default_deleteIA_cEEE7_M_headERS3_ = comdat any

$_ZNSt10_Head_baseILm1ESt14default_deleteIA_cELb1EE7_M_headERS3_ = comdat any

$_ZNKSt15__uniq_ptr_implIcSt14default_deleteIA_cEE6_M_ptrEv = comdat any

$_ZSt3getILm0EJPcSt14default_deleteIA_cEEERKNSt13tuple_elementIXT_ESt5tupleIJDpT0_EEE4typeERKS8_ = comdat any

$_ZSt12__get_helperILm0EPcJSt14default_deleteIA_cEEERKT0_RKSt11_Tuple_implIXT_EJS4_DpT1_EE = comdat any

$_ZNSt11_Tuple_implILm0EJPcSt14default_deleteIA_cEEE7_M_headERKS4_ = comdat any

$_ZNSt10_Head_baseILm0EPcLb0EE7_M_headERKS1_ = comdat any

$_ZTSSt23enable_shared_from_thisI16WorkerThreadDataE = comdat any

$_ZTISt23enable_shared_from_thisI16WorkerThreadDataE = comdat any

$_ZZ21defaultServiceManagervE3mgr = comdat any

@INCIDENT_HELPER = dso_local constant [28 x i8] c"/system/bin/incident_helper\00", align 16, !dbg !0
@.str = private unnamed_addr constant [17 x i8] c"/system/bin/gzip\00", align 1, !dbg !4254
@GZIP = dso_local global [2 x ptr] [ptr @.str, ptr null], align 16, !dbg !4259
@_ZTV11FileSection = dso_local unnamed_addr constant { [5 x ptr] } { [5 x ptr] [ptr null, ptr @_ZTI11FileSection, ptr @_ZN11FileSectionD1Ev, ptr @_ZN11FileSectionD0Ev, ptr @_ZNK11FileSection7ExecuteEP12ReportWriter] }, align 8
@.str.1 = private unnamed_addr constant [6 x i8] c"file \00", align 1, !dbg !4264
@_ZTV11GZipSection = dso_local unnamed_addr constant { [5 x ptr] } { [5 x ptr] [ptr null, ptr @_ZTI11GZipSection, ptr @_ZN11GZipSectionD1Ev, ptr @_ZN11GZipSectionD0Ev, ptr @_ZNK11GZipSection7ExecuteEP12ReportWriter] }, align 8
@.str.2 = private unnamed_addr constant [5 x i8] c"gzip\00", align 1, !dbg !4269
@.str.3 = private unnamed_addr constant [2 x i8] c" \00", align 1, !dbg !4274
@_ZTV16WorkerThreadData = dso_local unnamed_addr constant { [4 x ptr] } { [4 x ptr] [ptr null, ptr @_ZTI16WorkerThreadData, ptr @_ZN16WorkerThreadDataD1Ev, ptr @_ZN16WorkerThreadDataD0Ev] }, align 8
@_ZTV19WorkerThreadSection = dso_local unnamed_addr constant { [6 x ptr] } { [6 x ptr] [ptr null, ptr @_ZTI19WorkerThreadSection, ptr @_ZN19WorkerThreadSectionD1Ev, ptr @_ZN19WorkerThreadSectionD0Ev, ptr @_ZNK19WorkerThreadSection7ExecuteEP12ReportWriter, ptr @_ZNK19WorkerThreadSection12BlockingCallER9unique_fd] }, align 8
@_ZTV18TextDumpsysSection = available_externally unnamed_addr constant { [6 x ptr] } { [6 x ptr] [ptr null, ptr @_ZTI18TextDumpsysSection, ptr @_ZN18TextDumpsysSectionD1Ev, ptr @_ZN18TextDumpsysSectionD0Ev, ptr @_ZNK19WorkerThreadSection7ExecuteEP12ReportWriter, ptr @_ZNK18TextDumpsysSection12BlockingCallER9unique_fd] }, align 8
@.str.4 = private unnamed_addr constant [9 x i8] c"dumpsys \00", align 1, !dbg !4277
@_ZN10LogSection18gLastLogsRetrievedE = dso_local global %"class.std::map" zeroinitializer, align 8, !dbg !4282
@__dso_handle = external hidden global i8
@_ZTV10LogSection = available_externally unnamed_addr constant { [6 x ptr] } { [6 x ptr] [ptr null, ptr @_ZTI10LogSection, ptr @_ZN10LogSectionD1Ev, ptr @_ZN10LogSectionD0Ev, ptr @_ZNK19WorkerThreadSection7ExecuteEP12ReportWriter, ptr @_ZNK10LogSection12BlockingCallER9unique_fd] }, align 8
@.str.5 = private unnamed_addr constant [11 x i8] c"logcat -b \00", align 1, !dbg !4286
@.str.6 = private unnamed_addr constant [3 x i8] c"-L\00", align 1, !dbg !4291
@_ZTV16TombstoneSection = available_externally unnamed_addr constant { [6 x ptr] } { [6 x ptr] [ptr null, ptr @_ZTI16TombstoneSection, ptr @_ZN16TombstoneSectionD1Ev, ptr @_ZN16TombstoneSectionD0Ev, ptr @_ZNK19WorkerThreadSection7ExecuteEP12ReportWriter, ptr @_ZNK16TombstoneSection12BlockingCallER9unique_fd] }, align 8
@.str.7 = private unnamed_addr constant [11 x i8] c"tombstone \00", align 1, !dbg !4296
@.str.8 = private unnamed_addr constant [6 x i8] c"/proc\00", align 1, !dbg !4298
@.str.9 = private unnamed_addr constant [13 x i8] c"/proc/%d/exe\00", align 1, !dbg !4300
@.str.10 = private unnamed_addr constant [26 x i8] c"/system/bin/app_process32\00", align 1, !dbg !4305
@.str.11 = private unnamed_addr constant [26 x i8] c"/system/bin/app_process64\00", align 1, !dbg !4310
@.str.12 = private unnamed_addr constant [5 x i8] c"java\00", align 1, !dbg !4312
@.str.13 = private unnamed_addr constant [7 x i8] c"native\00", align 1, !dbg !4314
@.str.14 = private unnamed_addr constant [4 x i8] c"hal\00", align 1, !dbg !4319
@_ZTV19BringYourOwnSection = available_externally unnamed_addr constant { [6 x ptr] } { [6 x ptr] [ptr null, ptr @_ZTI19BringYourOwnSection, ptr @_ZN19BringYourOwnSectionD1Ev, ptr @_ZN19BringYourOwnSectionD0Ev, ptr @_ZNK19WorkerThreadSection7ExecuteEP12ReportWriter, ptr @_ZNK19BringYourOwnSection12BlockingCallER9unique_fd] }, align 8
@.str.15 = private unnamed_addr constant [12 x i8] c"registered \00", align 1, !dbg !4322
@_ZTVN10__cxxabiv120__si_class_type_infoE = external global ptr
@_ZTS19WorkerThreadSection = dso_local constant [22 x i8] c"19WorkerThreadSection\00", align 1
@_ZTI7Section = external constant ptr
@_ZTI19WorkerThreadSection = dso_local constant { ptr, ptr, ptr } { ptr getelementptr inbounds (ptr, ptr @_ZTVN10__cxxabiv120__si_class_type_infoE, i64 2), ptr @_ZTS19WorkerThreadSection, ptr @_ZTI7Section }, align 8
@_ZTS11FileSection = dso_local constant [14 x i8] c"11FileSection\00", align 1
@_ZTI11FileSection = dso_local constant { ptr, ptr, ptr } { ptr getelementptr inbounds (ptr, ptr @_ZTVN10__cxxabiv120__si_class_type_infoE, i64 2), ptr @_ZTS11FileSection, ptr @_ZTI7Section }, align 8
@_ZTS11GZipSection = dso_local constant [14 x i8] c"11GZipSection\00", align 1
@_ZTI11GZipSection = dso_local constant { ptr, ptr, ptr } { ptr getelementptr inbounds (ptr, ptr @_ZTVN10__cxxabiv120__si_class_type_infoE, i64 2), ptr @_ZTS11GZipSection, ptr @_ZTI7Section }, align 8
@_ZTVN10__cxxabiv121__vmi_class_type_infoE = external global ptr
@_ZTS16WorkerThreadData = dso_local constant [19 x i8] c"16WorkerThreadData\00", align 1
@_ZTVN10__cxxabiv117__class_type_infoE = external global ptr
@_ZTSSt23enable_shared_from_thisI16WorkerThreadDataE = linkonce_odr dso_local constant [48 x i8] c"St23enable_shared_from_thisI16WorkerThreadDataE\00", comdat, align 1
@_ZTISt23enable_shared_from_thisI16WorkerThreadDataE = linkonce_odr dso_local constant { ptr, ptr } { ptr getelementptr inbounds (ptr, ptr @_ZTVN10__cxxabiv117__class_type_infoE, i64 2), ptr @_ZTSSt23enable_shared_from_thisI16WorkerThreadDataE }, comdat, align 8
@_ZTI16WorkerThreadData = dso_local constant { ptr, ptr, i32, i32, ptr, i64 } { ptr getelementptr inbounds (ptr, ptr @_ZTVN10__cxxabiv121__vmi_class_type_infoE, i64 2), ptr @_ZTS16WorkerThreadData, i32 0, i32 1, ptr @_ZTISt23enable_shared_from_thisI16WorkerThreadDataE, i64 2050 }, align 8
@_ZTI18TextDumpsysSection = external constant ptr
@_ZTI10LogSection = external constant ptr
@_ZTI16TombstoneSection = external constant ptr
@_ZTI19BringYourOwnSection = external constant ptr
@.str.16 = private unnamed_addr constant [21 x i8] c"basic_string::append\00", align 1, !dbg !4327
@.str.17 = private unnamed_addr constant [6 x i8] c"/sys/\00", align 1, !dbg !4332
@.str.18 = private unnamed_addr constant [3 x i8] c"-s\00", align 1, !dbg !4334
@.str.19 = private unnamed_addr constant [3 x i8] c"%d\00", align 1, !dbg !4336
@.str.20 = private unnamed_addr constant [10 x i8] c"formatted\00", align 1, !dbg !4338
@_ZZ21defaultServiceManagervE3mgr = linkonce_odr dso_local global %class.ServiceManager zeroinitializer, comdat, align 1, !dbg !4343
@.str.21 = private unnamed_addr constant [13 x i8] c"dummy output\00", align 1, !dbg !4355
@.str.22 = private unnamed_addr constant [6 x i8] c"dummy\00", align 1, !dbg !4357
@.str.23 = private unnamed_addr constant [42 x i8] c"basic_string::_M_construct null not valid\00", align 1, !dbg !4359
@__libc_single_threaded = external global i8, align 1
@"_ZTVNSt6thread11_State_implINS_8_InvokerISt5tupleIJZNK18TextDumpsysSection12BlockingCallER9unique_fdE3$_0EEEEEE" = internal unnamed_addr constant { [5 x ptr] } { [5 x ptr] [ptr null, ptr @"_ZTINSt6thread11_State_implINS_8_InvokerISt5tupleIJZNK18TextDumpsysSection12BlockingCallER9unique_fdE3$_0EEEEEE", ptr @_ZNSt6thread6_StateD2Ev, ptr @"_ZNSt6thread11_State_implINS_8_InvokerISt5tupleIJZNK18TextDumpsysSection12BlockingCallER9unique_fdE3$_0EEEEED0Ev", ptr @"_ZNSt6thread11_State_implINS_8_InvokerISt5tupleIJZNK18TextDumpsysSection12BlockingCallER9unique_fdE3$_0EEEEE6_M_runEv"] }, align 8
@"_ZTSNSt6thread11_State_implINS_8_InvokerISt5tupleIJZNK18TextDumpsysSection12BlockingCallER9unique_fdE3$_0EEEEEE" = internal constant [108 x i8] c"NSt6thread11_State_implINS_8_InvokerISt5tupleIJZNK18TextDumpsysSection12BlockingCallER9unique_fdE3$_0EEEEEE\00", align 1
@_ZTINSt6thread6_StateE = external constant ptr
@"_ZTINSt6thread11_State_implINS_8_InvokerISt5tupleIJZNK18TextDumpsysSection12BlockingCallER9unique_fdE3$_0EEEEEE" = internal constant { ptr, ptr, ptr } { ptr getelementptr inbounds (ptr, ptr @_ZTVN10__cxxabiv120__si_class_type_infoE, i64 2), ptr @"_ZTSNSt6thread11_State_implINS_8_InvokerISt5tupleIJZNK18TextDumpsysSection12BlockingCallER9unique_fdE3$_0EEEEEE", ptr @_ZTINSt6thread6_StateE }, align 8
@_ZTVNSt6thread6_StateE = available_externally unnamed_addr constant { [5 x ptr] } { [5 x ptr] [ptr null, ptr @_ZTINSt6thread6_StateE, ptr @_ZNSt6thread6_StateD1Ev, ptr @_ZNSt6thread6_StateD0Ev, ptr @__cxa_pure_virtual] }, align 8
@llvm.global_ctors = appending global [1 x { i32, ptr, ptr }] [{ i32, ptr, ptr } { i32 65535, ptr @_GLOBAL__sub_I_Section_UAS_logic.cpp, ptr null }]

@_ZN11FileSectionC1EiPKcl = dso_local unnamed_addr alias void (ptr, i32, ptr, i64), ptr @_ZN11FileSectionC2EiPKcl
@_ZN11FileSectionD1Ev = dso_local unnamed_addr alias void (ptr), ptr @_ZN11FileSectionD2Ev
@_ZN11GZipSectionC1EiPKcz = dso_local unnamed_addr alias void (ptr, i32, ptr, ...), ptr @_ZN11GZipSectionC2EiPKcz
@_ZN11GZipSectionD1Ev = dso_local unnamed_addr alias void (ptr), ptr @_ZN11GZipSectionD2Ev
@_ZN16WorkerThreadDataC1EPK19WorkerThreadSection = dso_local unnamed_addr alias void (ptr, ptr), ptr @_ZN16WorkerThreadDataC2EPK19WorkerThreadSection
@_ZN16WorkerThreadDataD1Ev = dso_local unnamed_addr alias void (ptr), ptr @_ZN16WorkerThreadDataD2Ev
@_ZN19WorkerThreadSectionC1Eil = dso_local unnamed_addr alias void (ptr, i32, i64), ptr @_ZN19WorkerThreadSectionC2Eil
@_ZN19WorkerThreadSectionD1Ev = dso_local unnamed_addr alias void (ptr), ptr @_ZN19WorkerThreadSectionD2Ev
@_ZN18TextDumpsysSectionC1EiPKcz = dso_local unnamed_addr alias void (ptr, i32, ptr, ...), ptr @_ZN18TextDumpsysSectionC2EiPKcz
@_ZN10LogSectionC1EiPKcz = dso_local unnamed_addr alias void (ptr, i32, ptr, ...), ptr @_ZN10LogSectionC2EiPKcz
@_ZN16TombstoneSectionC1EiPKcl = dso_local unnamed_addr alias void (ptr, i32, ptr, i64), ptr @_ZN16TombstoneSectionC2EiPKcl
@_ZN19BringYourOwnSectionC1EiPKcjRK2spI21IIncidentDumpCallbackE = dso_local unnamed_addr alias void (ptr, i32, ptr, i32, ptr), ptr @_ZN19BringYourOwnSectionC2EiPKcjRK2spI21IIncidentDumpCallbackE

; Function Attrs: uwtable
define dso_local void @_ZN11FileSectionC2EiPKcl(ptr noundef nonnull align 8 dereferenceable(65) %0, i32 noundef %1, ptr noundef %2, i64 noundef %3) unnamed_addr #0 align 2 personality ptr @__gxx_personality_v0 !dbg !5319 {
  %5 = alloca ptr, align 8
  %6 = alloca i32, align 4
  %7 = alloca ptr, align 8
  %8 = alloca i64, align 8
  %9 = alloca %class.String8, align 8
  %10 = alloca ptr, align 8
  %11 = alloca i32, align 4
  store ptr %0, ptr %5, align 8, !tbaa !5343
  call void @llvm.dbg.declare(metadata ptr %5, metadata !5338, metadata !DIExpression()), !dbg !5347
  store i32 %1, ptr %6, align 4, !tbaa !5348
  call void @llvm.dbg.declare(metadata ptr %6, metadata !5340, metadata !DIExpression()), !dbg !5350
  store ptr %2, ptr %7, align 8, !tbaa !5343
  call void @llvm.dbg.declare(metadata ptr %7, metadata !5341, metadata !DIExpression()), !dbg !5351
  store i64 %3, ptr %8, align 8, !tbaa !5352
  call void @llvm.dbg.declare(metadata ptr %8, metadata !5342, metadata !DIExpression()), !dbg !5354
  %12 = load ptr, ptr %5, align 8
  %13 = load i32, ptr %6, align 4, !dbg !5355, !tbaa !5348
  %14 = load i64, ptr %8, align 8, !dbg !5356, !tbaa !5352
  call void @_ZN7SectionC2Eil(ptr noundef nonnull align 8 dereferenceable(56) %12, i32 noundef %13, i64 noundef %14), !dbg !5357
  store ptr getelementptr inbounds ({ [5 x ptr] }, ptr @_ZTV11FileSection, i32 0, inrange i32 0, i32 2), ptr %12, align 8, !dbg !5358, !tbaa !5359
  %15 = getelementptr inbounds %class.FileSection, ptr %12, i32 0, i32 1, !dbg !5361
  %16 = load ptr, ptr %7, align 8, !dbg !5362, !tbaa !5343
  store ptr %16, ptr %15, align 8, !dbg !5361, !tbaa !5363
  call void @llvm.lifetime.start.p0(i64 32, ptr %9) #16, !dbg !5370
  invoke void @_ZN7String8C2EPKc(ptr noundef nonnull align 8 dereferenceable(32) %9, ptr noundef @.str.1)
          to label %17 unwind label %29, !dbg !5370

17:                                               ; preds = %4
  %18 = getelementptr inbounds %class.Section, ptr %12, i32 0, i32 3, !dbg !5372
  %19 = call noundef nonnull align 8 dereferenceable(32) ptr @_ZN7String8aSEOS_(ptr noundef nonnull align 8 dereferenceable(32) %18, ptr noundef nonnull align 8 dereferenceable(32) %9) #16, !dbg !5373
  call void @_ZN7String8D2Ev(ptr noundef nonnull align 8 dereferenceable(32) %9) #16, !dbg !5372
  call void @llvm.lifetime.end.p0(i64 32, ptr %9) #16, !dbg !5372
  %20 = load ptr, ptr %7, align 8, !dbg !5374, !tbaa !5343
  %21 = getelementptr inbounds %class.Section, ptr %12, i32 0, i32 3, !dbg !5375
  %22 = invoke noundef nonnull align 8 dereferenceable(32) ptr @_ZN7String8pLEPKc(ptr noundef nonnull align 8 dereferenceable(32) %21, ptr noundef %20)
          to label %23 unwind label %33, !dbg !5376

23:                                               ; preds = %17
  %24 = load ptr, ptr %7, align 8, !dbg !5377, !tbaa !5343
  %25 = invoke noundef zeroext i1 @_ZL7isSysfsPKc(ptr noundef %24)
          to label %26 unwind label %33, !dbg !5378

26:                                               ; preds = %23
  %27 = getelementptr inbounds %class.FileSection, ptr %12, i32 0, i32 2, !dbg !5379
  %28 = zext i1 %25 to i8, !dbg !5380
  store i8 %28, ptr %27, align 8, !dbg !5380, !tbaa !5381
  ret void, !dbg !5382

29:                                               ; preds = %4
  %30 = landingpad { ptr, i32 }
          cleanup, !dbg !5383
  %31 = extractvalue { ptr, i32 } %30, 0, !dbg !5383
  store ptr %31, ptr %10, align 8, !dbg !5383
  %32 = extractvalue { ptr, i32 } %30, 1, !dbg !5383
  store i32 %32, ptr %11, align 4, !dbg !5383
  call void @llvm.lifetime.end.p0(i64 32, ptr %9) #16, !dbg !5372
  br label %37, !dbg !5372

33:                                               ; preds = %23, %17
  %34 = landingpad { ptr, i32 }
          cleanup, !dbg !5383
  %35 = extractvalue { ptr, i32 } %34, 0, !dbg !5383
  store ptr %35, ptr %10, align 8, !dbg !5383
  %36 = extractvalue { ptr, i32 } %34, 1, !dbg !5383
  store i32 %36, ptr %11, align 4, !dbg !5383
  br label %37, !dbg !5383

37:                                               ; preds = %33, %29
  call void @_ZN7SectionD2Ev(ptr noundef nonnull align 8 dereferenceable(56) %12) #16, !dbg !5383
  br label %38, !dbg !5383

38:                                               ; preds = %37
  %39 = load ptr, ptr %10, align 8, !dbg !5383
  %40 = load i32, ptr %11, align 4, !dbg !5383
  %41 = insertvalue { ptr, i32 } poison, ptr %39, 0, !dbg !5383
  %42 = insertvalue { ptr, i32 } %41, i32 %40, 1, !dbg !5383
  resume { ptr, i32 } %42, !dbg !5383
}

; Function Attrs: nocallback nofree nosync nounwind speculatable willreturn memory(none)
declare void @llvm.dbg.declare(metadata, metadata, metadata) #1

declare void @_ZN7SectionC2Eil(ptr noundef nonnull align 8 dereferenceable(56), i32 noundef, i64 noundef) unnamed_addr #2

; Function Attrs: nocallback nofree nosync nounwind willreturn memory(argmem: readwrite)
declare void @llvm.lifetime.start.p0(i64 immarg, ptr nocapture) #3

; Function Attrs: uwtable
define linkonce_odr dso_local void @_ZN7String8C2EPKc(ptr noundef nonnull align 8 dereferenceable(32) %0, ptr noundef %1) unnamed_addr #0 comdat align 2 personality ptr @__gxx_personality_v0 !dbg !5384 {
  %3 = alloca ptr, align 8
  %4 = alloca ptr, align 8
  %5 = alloca %"class.std::allocator", align 1
  %6 = alloca ptr, align 8
  %7 = alloca i32, align 4
  store ptr %0, ptr %3, align 8, !tbaa !5343
  call void @llvm.dbg.declare(metadata ptr %3, metadata !5386, metadata !DIExpression()), !dbg !5389
  store ptr %1, ptr %4, align 8, !tbaa !5343
  call void @llvm.dbg.declare(metadata ptr %4, metadata !5388, metadata !DIExpression()), !dbg !5390
  %8 = load ptr, ptr %3, align 8
  %9 = getelementptr inbounds %class.String8, ptr %8, i32 0, i32 0, !dbg !5391
  %10 = load ptr, ptr %4, align 8, !dbg !5392, !tbaa !5343
  call void @llvm.lifetime.start.p0(i64 1, ptr %5) #16, !dbg !5391
  call void @_ZNSaIcEC2Ev(ptr noundef nonnull align 1 dereferenceable(1) %5) #16, !dbg !5391
  invoke void @_ZNSt7__cxx1112basic_stringIcSt11char_traitsIcESaIcEEC2IS3_EEPKcRKS3_(ptr noundef nonnull align 8 dereferenceable(32) %9, ptr noundef %10, ptr noundef nonnull align 1 dereferenceable(1) %5)
          to label %11 unwind label %12, !dbg !5391

11:                                               ; preds = %2
  call void @_ZN9__gnu_cxx13new_allocatorIcED2Ev(ptr noundef nonnull align 1 dereferenceable(1) %5) #16, !dbg !5391
  call void @llvm.lifetime.end.p0(i64 1, ptr %5) #16, !dbg !5391
  ret void, !dbg !5393

12:                                               ; preds = %2
  %13 = landingpad { ptr, i32 }
          cleanup, !dbg !5393
  %14 = extractvalue { ptr, i32 } %13, 0, !dbg !5393
  store ptr %14, ptr %6, align 8, !dbg !5393
  %15 = extractvalue { ptr, i32 } %13, 1, !dbg !5393
  store i32 %15, ptr %7, align 4, !dbg !5393
  call void @_ZN9__gnu_cxx13new_allocatorIcED2Ev(ptr noundef nonnull align 1 dereferenceable(1) %5) #16, !dbg !5391
  call void @llvm.lifetime.end.p0(i64 1, ptr %5) #16, !dbg !5391
  br label %16, !dbg !5391

16:                                               ; preds = %12
  %17 = load ptr, ptr %6, align 8, !dbg !5391
  %18 = load i32, ptr %7, align 4, !dbg !5391
  %19 = insertvalue { ptr, i32 } poison, ptr %17, 0, !dbg !5391
  %20 = insertvalue { ptr, i32 } %19, i32 %18, 1, !dbg !5391
  resume { ptr, i32 } %20, !dbg !5391
}

declare i32 @__gxx_personality_v0(...)

; Function Attrs: inlinehint nounwind uwtable
define linkonce_odr dso_local noundef nonnull align 8 dereferenceable(32) ptr @_ZN7String8aSEOS_(ptr noundef nonnull align 8 dereferenceable(32) %0, ptr noundef nonnull align 8 dereferenceable(32) %1) #4 comdat align 2 !dbg !5394 {
  %3 = alloca ptr, align 8
  %4 = alloca ptr, align 8
  store ptr %0, ptr %3, align 8, !tbaa !5343
  call void @llvm.dbg.declare(metadata ptr %3, metadata !5400, metadata !DIExpression()), !dbg !5402
  store ptr %1, ptr %4, align 8, !tbaa !5343
  call void @llvm.dbg.declare(metadata ptr %4, metadata !5401, metadata !DIExpression()), !dbg !5402
  %5 = load ptr, ptr %3, align 8
  %6 = getelementptr inbounds %class.String8, ptr %5, i32 0, i32 0, !dbg !5403
  %7 = load ptr, ptr %4, align 8, !dbg !5403, !tbaa !5343
  %8 = getelementptr inbounds %class.String8, ptr %7, i32 0, i32 0, !dbg !5403
  %9 = call noundef nonnull align 8 dereferenceable(32) ptr @_ZNSt7__cxx1112basic_stringIcSt11char_traitsIcESaIcEEaSEOS4_(ptr noundef nonnull align 8 dereferenceable(32) %6, ptr noundef nonnull align 8 dereferenceable(32) %8) #16, !dbg !5403
  ret ptr %5, !dbg !5403
}

; Function Attrs: inlinehint nounwind uwtable
define linkonce_odr dso_local void @_ZN7String8D2Ev(ptr noundef nonnull align 8 dereferenceable(32) %0) unnamed_addr #4 comdat align 2 !dbg !5405 {
  %2 = alloca ptr, align 8
  store ptr %0, ptr %2, align 8, !tbaa !5343
  call void @llvm.dbg.declare(metadata ptr %2, metadata !5408, metadata !DIExpression()), !dbg !5409
  %3 = load ptr, ptr %2, align 8
  %4 = getelementptr inbounds %class.String8, ptr %3, i32 0, i32 0, !dbg !5410
  call void @_ZNSt7__cxx1112basic_stringIcSt11char_traitsIcESaIcEED2Ev(ptr noundef nonnull align 8 dereferenceable(32) %4) #16, !dbg !5410
  ret void, !dbg !5412
}

; Function Attrs: nocallback nofree nosync nounwind willreturn memory(argmem: readwrite)
declare void @llvm.lifetime.end.p0(i64 immarg, ptr nocapture) #3

; Function Attrs: mustprogress uwtable
define linkonce_odr dso_local noundef nonnull align 8 dereferenceable(32) ptr @_ZN7String8pLEPKc(ptr noundef nonnull align 8 dereferenceable(32) %0, ptr noundef %1) #5 comdat align 2 !dbg !5413 {
  %3 = alloca ptr, align 8
  %4 = alloca ptr, align 8
  store ptr %0, ptr %3, align 8, !tbaa !5343
  call void @llvm.dbg.declare(metadata ptr %3, metadata !5415, metadata !DIExpression()), !dbg !5417
  store ptr %1, ptr %4, align 8, !tbaa !5343
  call void @llvm.dbg.declare(metadata ptr %4, metadata !5416, metadata !DIExpression()), !dbg !5418
  %5 = load ptr, ptr %3, align 8
  %6 = load ptr, ptr %4, align 8, !dbg !5419, !tbaa !5343
  %7 = getelementptr inbounds %class.String8, ptr %5, i32 0, i32 0, !dbg !5420
  %8 = call noundef nonnull align 8 dereferenceable(32) ptr @_ZNSt7__cxx1112basic_stringIcSt11char_traitsIcESaIcEEpLEPKc(ptr noundef nonnull align 8 dereferenceable(32) %7, ptr noundef %6), !dbg !5421
  ret ptr %5, !dbg !5422
}

; Function Attrs: inlinehint mustprogress nounwind uwtable
define internal noundef zeroext i1 @_ZL7isSysfsPKc(ptr noundef %0) #6 !dbg !5423 {
  %2 = alloca ptr, align 8
  store ptr %0, ptr %2, align 8, !tbaa !5343
  call void @llvm.dbg.declare(metadata ptr %2, metadata !5427, metadata !DIExpression()), !dbg !5428
  %3 = load ptr, ptr %2, align 8, !dbg !5429, !tbaa !5343
  %4 = call i32 @strncmp(ptr noundef %3, ptr noundef @.str.17, i64 noundef 5) #26, !dbg !5430
  %5 = icmp eq i32 %4, 0, !dbg !5431
  ret i1 %5, !dbg !5432
}

; Function Attrs: nounwind
declare void @_ZN7SectionD2Ev(ptr noundef nonnull align 8 dereferenceable(56)) unnamed_addr #7

; Function Attrs: nounwind uwtable
define dso_local void @_ZN11FileSectionD2Ev(ptr noundef nonnull align 8 dereferenceable(65) %0) unnamed_addr #8 align 2 !dbg !5433 {
  %2 = alloca ptr, align 8
  store ptr %0, ptr %2, align 8, !tbaa !5343
  call void @llvm.dbg.declare(metadata ptr %2, metadata !5435, metadata !DIExpression()), !dbg !5436
  %3 = load ptr, ptr %2, align 8
  call void @_ZN7SectionD2Ev(ptr noundef nonnull align 8 dereferenceable(56) %3) #16, !dbg !5437
  ret void, !dbg !5439
}

; Function Attrs: nounwind uwtable
define dso_local void @_ZN11FileSectionD0Ev(ptr noundef nonnull align 8 dereferenceable(65) %0) unnamed_addr #8 align 2 !dbg !5440 {
  %2 = alloca ptr, align 8
  store ptr %0, ptr %2, align 8, !tbaa !5343
  call void @llvm.dbg.declare(metadata ptr %2, metadata !5442, metadata !DIExpression()), !dbg !5443
  %3 = load ptr, ptr %2, align 8
  call void @_ZN11FileSectionD1Ev(ptr noundef nonnull align 8 dereferenceable(65) %3) #16, !dbg !5444
  call void @_ZdlPv(ptr noundef %3) #27, !dbg !5444
  ret void, !dbg !5445
}

; Function Attrs: nobuiltin nounwind
declare !dbg !5446 void @_ZdlPv(ptr noundef) #9

; Function Attrs: mustprogress uwtable
define dso_local noundef i32 @_ZNK11FileSection7ExecuteEP12ReportWriter(ptr noundef nonnull align 8 dereferenceable(65) %0, ptr noundef %1) unnamed_addr #5 align 2 !dbg !5448 {
  %3 = alloca i32, align 4
  %4 = alloca ptr, align 8
  %5 = alloca ptr, align 8
  %6 = alloca %class.unique_fd, align 4
  %7 = alloca i32, align 4
  %8 = alloca %class.FdBuffer, align 1
  %9 = alloca %class.Fpipe, align 4
  %10 = alloca %class.Fpipe, align 4
  %11 = alloca i32, align 4
  %12 = alloca i32, align 4
  %13 = alloca i32, align 4
  store ptr %0, ptr %4, align 8, !tbaa !5343
  call void @llvm.dbg.declare(metadata ptr %4, metadata !5450, metadata !DIExpression()), !dbg !5463
  store ptr %1, ptr %5, align 8, !tbaa !5343
  call void @llvm.dbg.declare(metadata ptr %5, metadata !5452, metadata !DIExpression()), !dbg !5464
  %14 = load ptr, ptr %4, align 8
  call void @llvm.lifetime.start.p0(i64 4, ptr %6) #16, !dbg !5465
  call void @llvm.dbg.declare(metadata ptr %6, metadata !5453, metadata !DIExpression()), !dbg !5466
  %15 = getelementptr inbounds %class.FileSection, ptr %14, i32 0, i32 1, !dbg !5467
  %16 = load ptr, ptr %15, align 8, !dbg !5467, !tbaa !5363
  %17 = call i32 (ptr, i32, ...) @open(ptr noundef %16, i32 noundef 524288), !dbg !5468
  call void @_ZN9unique_fdC2Ei(ptr noundef nonnull align 4 dereferenceable(4) %6, i32 noundef %17), !dbg !5466
  %18 = call noundef i32 @_ZNK9unique_fd3getEv(ptr noundef nonnull align 4 dereferenceable(4) %6), !dbg !5469
  %19 = icmp eq i32 %18, -1, !dbg !5471
  br i1 %19, label %20, label %21, !dbg !5472

20:                                               ; preds = %2
  store i32 0, ptr %3, align 4, !dbg !5473
  store i32 1, ptr %7, align 4
  br label %70, !dbg !5473

21:                                               ; preds = %2
  call void @llvm.lifetime.start.p0(i64 1, ptr %8) #16, !dbg !5475
  call void @llvm.dbg.declare(metadata ptr %8, metadata !5454, metadata !DIExpression()), !dbg !5476
  call void @llvm.lifetime.start.p0(i64 8, ptr %9) #16, !dbg !5477
  call void @llvm.dbg.declare(metadata ptr %9, metadata !5455, metadata !DIExpression()), !dbg !5478
  call void @_ZN5FpipeC2Ev(ptr noundef nonnull align 4 dereferenceable(8) %9), !dbg !5478
  call void @llvm.lifetime.start.p0(i64 8, ptr %10) #16, !dbg !5479
  call void @llvm.dbg.declare(metadata ptr %10, metadata !5456, metadata !DIExpression()), !dbg !5480
  call void @_ZN5FpipeC2Ev(ptr noundef nonnull align 4 dereferenceable(8) %10), !dbg !5480
  %22 = call noundef zeroext i1 @_ZN5Fpipe4initEv(ptr noundef nonnull align 4 dereferenceable(8) %9), !dbg !5481
  br i1 %22, label %23, label %25, !dbg !5483

23:                                               ; preds = %21
  %24 = call noundef zeroext i1 @_ZN5Fpipe4initEv(ptr noundef nonnull align 4 dereferenceable(8) %10), !dbg !5484
  br i1 %24, label %29, label %25, !dbg !5485

25:                                               ; preds = %23, %21
  %26 = call ptr @__errno_location() #28, !dbg !5486
  %27 = load i32, ptr %26, align 4, !dbg !5486, !tbaa !5348
  %28 = sub nsw i32 0, %27, !dbg !5488
  store i32 %28, ptr %3, align 4, !dbg !5489
  store i32 1, ptr %7, align 4
  br label %69, !dbg !5489

29:                                               ; preds = %23
  call void @llvm.lifetime.start.p0(i64 4, ptr %11) #16, !dbg !5490
  call void @llvm.dbg.declare(metadata ptr %11, metadata !5457, metadata !DIExpression()), !dbg !5491
  %30 = getelementptr inbounds %class.Section, ptr %14, i32 0, i32 1, !dbg !5492
  %31 = load i32, ptr %30, align 8, !dbg !5492, !tbaa !5493
  %32 = call noundef i32 @_ZL28fork_execute_incident_helperiP5FpipeS0_(i32 noundef %31, ptr noundef %9, ptr noundef %10), !dbg !5494
  store i32 %32, ptr %11, align 4, !dbg !5491, !tbaa !5348
  %33 = load i32, ptr %11, align 4, !dbg !5495, !tbaa !5348
  %34 = icmp eq i32 %33, -1, !dbg !5497
  br i1 %34, label %35, label %39, !dbg !5498

35:                                               ; preds = %29
  %36 = call ptr @__errno_location() #28, !dbg !5499
  %37 = load i32, ptr %36, align 4, !dbg !5499, !tbaa !5348
  %38 = sub nsw i32 0, %37, !dbg !5501
  store i32 %38, ptr %3, align 4, !dbg !5502
  store i32 1, ptr %7, align 4
  br label %68, !dbg !5502

39:                                               ; preds = %29
  call void @llvm.lifetime.start.p0(i64 4, ptr %12) #16, !dbg !5503
  call void @llvm.dbg.declare(metadata ptr %12, metadata !5461, metadata !DIExpression()), !dbg !5504
  %40 = call noundef i32 @_ZNK9unique_fd3getEv(ptr noundef nonnull align 4 dereferenceable(4) %6), !dbg !5505
  %41 = call noundef nonnull align 4 dereferenceable(4) ptr @_ZN5Fpipe7writeFdEv(ptr noundef nonnull align 4 dereferenceable(8) %9), !dbg !5506
  %42 = call noundef nonnull align 4 dereferenceable(4) ptr @_ZN5Fpipe6readFdEv(ptr noundef nonnull align 4 dereferenceable(8) %10), !dbg !5507
  %43 = getelementptr inbounds %class.Section, ptr %14, i32 0, i32 2, !dbg !5508
  %44 = load i64, ptr %43, align 8, !dbg !5508, !tbaa !5509
  %45 = getelementptr inbounds %class.FileSection, ptr %14, i32 0, i32 2, !dbg !5510
  %46 = load i8, ptr %45, align 8, !dbg !5510, !tbaa !5381, !range !5511, !noundef !171
  %47 = trunc i8 %46 to i1, !dbg !5510
  %48 = call noundef i32 @_ZN8FdBuffer25readProcessedDataInStreamEiO9unique_fdS1_lb(ptr noundef nonnull align 1 dereferenceable(1) %8, i32 noundef %40, ptr noundef nonnull align 4 dereferenceable(4) %41, ptr noundef nonnull align 4 dereferenceable(4) %42, i64 noundef %44, i1 noundef zeroext %47), !dbg !5512
  store i32 %48, ptr %12, align 4, !dbg !5504, !tbaa !5348
  %49 = load ptr, ptr %5, align 8, !dbg !5513, !tbaa !5343
  call void @_ZN12ReportWriter15setSectionStatsERK8FdBuffer(ptr noundef nonnull align 1 dereferenceable(1) %49, ptr noundef nonnull align 1 dereferenceable(1) %8), !dbg !5514
  %50 = load i32, ptr %12, align 4, !dbg !5515, !tbaa !5348
  %51 = icmp ne i32 %50, 0, !dbg !5517
  br i1 %51, label %54, label %52, !dbg !5518

52:                                               ; preds = %39
  %53 = call noundef zeroext i1 @_ZNK8FdBuffer8timedOutEv(ptr noundef nonnull align 1 dereferenceable(1) %8), !dbg !5519
  br i1 %53, label %54, label %57, !dbg !5520

54:                                               ; preds = %52, %39
  %55 = load i32, ptr %11, align 4, !dbg !5521, !tbaa !5348
  call void @_Z10kill_childi(i32 noundef %55), !dbg !5523
  %56 = load i32, ptr %12, align 4, !dbg !5524, !tbaa !5348
  store i32 %56, ptr %3, align 4, !dbg !5525
  store i32 1, ptr %7, align 4
  br label %67, !dbg !5525

57:                                               ; preds = %52
  call void @llvm.lifetime.start.p0(i64 4, ptr %13) #16, !dbg !5526
  call void @llvm.dbg.declare(metadata ptr %13, metadata !5462, metadata !DIExpression()), !dbg !5527
  %58 = load i32, ptr %11, align 4, !dbg !5528, !tbaa !5348
  %59 = call noundef i32 @_Z10wait_childi(i32 noundef %58), !dbg !5529
  store i32 %59, ptr %13, align 4, !dbg !5527, !tbaa !5348
  %60 = load i32, ptr %13, align 4, !dbg !5530, !tbaa !5348
  %61 = icmp ne i32 %60, 0, !dbg !5532
  br i1 %61, label %62, label %63, !dbg !5533

62:                                               ; preds = %57
  store i32 0, ptr %3, align 4, !dbg !5534
  store i32 1, ptr %7, align 4
  br label %66, !dbg !5534

63:                                               ; preds = %57
  %64 = load ptr, ptr %5, align 8, !dbg !5536, !tbaa !5343
  %65 = call noundef i32 @_ZN12ReportWriter12writeSectionERK8FdBuffer(ptr noundef nonnull align 1 dereferenceable(1) %64, ptr noundef nonnull align 1 dereferenceable(1) %8), !dbg !5537
  store i32 %65, ptr %3, align 4, !dbg !5538
  store i32 1, ptr %7, align 4
  br label %66, !dbg !5538

66:                                               ; preds = %63, %62
  call void @llvm.lifetime.end.p0(i64 4, ptr %13) #16, !dbg !5539
  br label %67

67:                                               ; preds = %66, %54
  call void @llvm.lifetime.end.p0(i64 4, ptr %12) #16, !dbg !5539
  br label %68

68:                                               ; preds = %67, %35
  call void @llvm.lifetime.end.p0(i64 4, ptr %11) #16, !dbg !5539
  br label %69

69:                                               ; preds = %68, %25
  call void @llvm.lifetime.end.p0(i64 8, ptr %10) #16, !dbg !5539
  call void @llvm.lifetime.end.p0(i64 8, ptr %9) #16, !dbg !5539
  call void @llvm.lifetime.end.p0(i64 1, ptr %8) #16, !dbg !5539
  br label %70

70:                                               ; preds = %69, %20
  call void @llvm.lifetime.end.p0(i64 4, ptr %6) #16, !dbg !5539
  %71 = load i32, ptr %3, align 4, !dbg !5539
  ret i32 %71, !dbg !5539
}

declare !dbg !5540 i32 @open(ptr noundef, i32 noundef, ...) #2

; Function Attrs: nounwind uwtable
define linkonce_odr dso_local void @_ZN9unique_fdC2Ei(ptr noundef nonnull align 4 dereferenceable(4) %0, i32 noundef %1) unnamed_addr #8 comdat align 2 !dbg !5544 {
  %3 = alloca ptr, align 8
  %4 = alloca i32, align 4
  store ptr %0, ptr %3, align 8, !tbaa !5343
  call void @llvm.dbg.declare(metadata ptr %3, metadata !5546, metadata !DIExpression()), !dbg !5549
  store i32 %1, ptr %4, align 4, !tbaa !5348
  call void @llvm.dbg.declare(metadata ptr %4, metadata !5548, metadata !DIExpression()), !dbg !5550
  %5 = load ptr, ptr %3, align 8
  %6 = getelementptr inbounds %class.unique_fd, ptr %5, i32 0, i32 0, !dbg !5551
  %7 = load i32, ptr %4, align 4, !dbg !5552, !tbaa !5348
  store i32 %7, ptr %6, align 4, !dbg !5551, !tbaa !5553
  ret void, !dbg !5555
}

; Function Attrs: mustprogress nounwind uwtable
define linkonce_odr dso_local noundef i32 @_ZNK9unique_fd3getEv(ptr noundef nonnull align 4 dereferenceable(4) %0) #10 comdat align 2 !dbg !5556 {
  %2 = alloca ptr, align 8
  store ptr %0, ptr %2, align 8, !tbaa !5343
  call void @llvm.dbg.declare(metadata ptr %2, metadata !5558, metadata !DIExpression()), !dbg !5560
  %3 = load ptr, ptr %2, align 8
  %4 = getelementptr inbounds %class.unique_fd, ptr %3, i32 0, i32 0, !dbg !5561
  %5 = load i32, ptr %4, align 4, !dbg !5561, !tbaa !5553
  ret i32 %5, !dbg !5562
}

; Function Attrs: inlinehint uwtable
define linkonce_odr dso_local void @_ZN5FpipeC2Ev(ptr noundef nonnull align 4 dereferenceable(8) %0) unnamed_addr #11 comdat align 2 !dbg !5563 {
  %2 = alloca ptr, align 8
  store ptr %0, ptr %2, align 8, !tbaa !5343
  call void @llvm.dbg.declare(metadata ptr %2, metadata !5566, metadata !DIExpression()), !dbg !5568
  %3 = load ptr, ptr %2, align 8
  %4 = getelementptr inbounds %class.Fpipe, ptr %3, i32 0, i32 0, !dbg !5569
  call void @_ZN9unique_fdC2Ev(ptr noundef nonnull align 4 dereferenceable(4) %4), !dbg !5569
  %5 = getelementptr inbounds %class.Fpipe, ptr %3, i32 0, i32 1, !dbg !5569
  call void @_ZN9unique_fdC2Ev(ptr noundef nonnull align 4 dereferenceable(4) %5), !dbg !5569
  ret void, !dbg !5569
}

; Function Attrs: mustprogress nounwind uwtable
define linkonce_odr dso_local noundef zeroext i1 @_ZN5Fpipe4initEv(ptr noundef nonnull align 4 dereferenceable(8) %0) #10 comdat align 2 !dbg !5570 {
  %2 = alloca ptr, align 8
  store ptr %0, ptr %2, align 8, !tbaa !5343
  call void @llvm.dbg.declare(metadata ptr %2, metadata !5572, metadata !DIExpression()), !dbg !5573
  %3 = load ptr, ptr %2, align 8
  ret i1 true, !dbg !5574
}

; Function Attrs: nounwind willreturn memory(none)
declare !dbg !5575 ptr @__errno_location() #12

; Function Attrs: mustprogress uwtable
define internal noundef i32 @_ZL28fork_execute_incident_helperiP5FpipeS0_(i32 noundef %0, ptr noundef %1, ptr noundef %2) #5 personality ptr @__gxx_personality_v0 !dbg !5579 {
  %4 = alloca i32, align 4
  %5 = alloca ptr, align 8
  %6 = alloca ptr, align 8
  %7 = alloca [4 x ptr], align 16
  %8 = alloca %class.String8, align 8
  %9 = alloca ptr, align 8
  %10 = alloca i32, align 4
  store i32 %0, ptr %4, align 4, !tbaa !5348
  call void @llvm.dbg.declare(metadata ptr %4, metadata !5583, metadata !DIExpression()), !dbg !5588
  store ptr %1, ptr %5, align 8, !tbaa !5343
  call void @llvm.dbg.declare(metadata ptr %5, metadata !5584, metadata !DIExpression()), !dbg !5589
  store ptr %2, ptr %6, align 8, !tbaa !5343
  call void @llvm.dbg.declare(metadata ptr %6, metadata !5585, metadata !DIExpression()), !dbg !5590
  call void @llvm.lifetime.start.p0(i64 32, ptr %7) #16, !dbg !5591
  call void @llvm.dbg.declare(metadata ptr %7, metadata !5586, metadata !DIExpression()), !dbg !5592
  %11 = getelementptr inbounds [4 x ptr], ptr %7, i64 0, i64 0, !dbg !5593
  store ptr @INCIDENT_HELPER, ptr %11, align 8, !dbg !5593, !tbaa !5343
  %12 = getelementptr inbounds ptr, ptr %11, i64 1, !dbg !5593
  store ptr @.str.18, ptr %12, align 8, !dbg !5593, !tbaa !5343
  %13 = getelementptr inbounds ptr, ptr %12, i64 1, !dbg !5593
  call void @llvm.lifetime.start.p0(i64 32, ptr %8) #16, !dbg !5594
  %14 = load i32, ptr %4, align 4, !dbg !5595, !tbaa !5348
  call void (ptr, ptr, ...) @_ZN7String86formatEPKcz(ptr sret(%class.String8) align 8 %8, ptr noundef @.str.19, i32 noundef %14), !dbg !5594
  %15 = invoke noundef ptr @_ZNK7String86stringEv(ptr noundef nonnull align 8 dereferenceable(32) %8)
          to label %16 unwind label %22, !dbg !5596

16:                                               ; preds = %3
  store ptr %15, ptr %13, align 8, !dbg !5593, !tbaa !5343
  %17 = getelementptr inbounds ptr, ptr %13, i64 1, !dbg !5593
  store ptr null, ptr %17, align 8, !dbg !5593, !tbaa !5343
  call void @_ZN7String8D2Ev(ptr noundef nonnull align 8 dereferenceable(32) %8) #16, !dbg !5593
  call void @llvm.lifetime.end.p0(i64 32, ptr %8) #16, !dbg !5593
  %18 = getelementptr inbounds [4 x ptr], ptr %7, i64 0, i64 0, !dbg !5597
  %19 = load ptr, ptr %5, align 8, !dbg !5598, !tbaa !5343
  %20 = load ptr, ptr %6, align 8, !dbg !5599, !tbaa !5343
  %21 = call noundef i32 @_Z16fork_execute_cmdPKPcP5FpipeS3_(ptr noundef %18, ptr noundef %19, ptr noundef %20), !dbg !5600
  call void @llvm.lifetime.end.p0(i64 32, ptr %7) #16, !dbg !5601
  ret i32 %21, !dbg !5602

22:                                               ; preds = %3
  %23 = landingpad { ptr, i32 }
          cleanup, !dbg !5601
  %24 = extractvalue { ptr, i32 } %23, 0, !dbg !5601
  store ptr %24, ptr %9, align 8, !dbg !5601
  %25 = extractvalue { ptr, i32 } %23, 1, !dbg !5601
  store i32 %25, ptr %10, align 4, !dbg !5601
  call void @_ZN7String8D2Ev(ptr noundef nonnull align 8 dereferenceable(32) %8) #16, !dbg !5593
  call void @llvm.lifetime.end.p0(i64 32, ptr %8) #16, !dbg !5593
  call void @llvm.lifetime.end.p0(i64 32, ptr %7) #16, !dbg !5601
  br label %26, !dbg !5601

26:                                               ; preds = %22
  %27 = load ptr, ptr %9, align 8, !dbg !5601
  %28 = load i32, ptr %10, align 4, !dbg !5601
  %29 = insertvalue { ptr, i32 } poison, ptr %27, 0, !dbg !5601
  %30 = insertvalue { ptr, i32 } %29, i32 %28, 1, !dbg !5601
  resume { ptr, i32 } %30, !dbg !5601
}

; Function Attrs: mustprogress nounwind uwtable
define linkonce_odr dso_local noundef i32 @_ZN8FdBuffer25readProcessedDataInStreamEiO9unique_fdS1_lb(ptr noundef nonnull align 1 dereferenceable(1) %0, i32 noundef %1, ptr noundef nonnull align 4 dereferenceable(4) %2, ptr noundef nonnull align 4 dereferenceable(4) %3, i64 noundef %4, i1 noundef zeroext %5) #10 comdat align 2 !dbg !5603 {
  %7 = alloca ptr, align 8
  %8 = alloca i32, align 4
  %9 = alloca ptr, align 8
  %10 = alloca ptr, align 8
  %11 = alloca i64, align 8
  %12 = alloca i8, align 1
  store ptr %0, ptr %7, align 8, !tbaa !5343
  call void @llvm.dbg.declare(metadata ptr %7, metadata !5605, metadata !DIExpression()), !dbg !5612
  store i32 %1, ptr %8, align 4, !tbaa !5348
  call void @llvm.dbg.declare(metadata ptr %8, metadata !5607, metadata !DIExpression()), !dbg !5613
  store ptr %2, ptr %9, align 8, !tbaa !5343
  call void @llvm.dbg.declare(metadata ptr %9, metadata !5608, metadata !DIExpression()), !dbg !5614
  store ptr %3, ptr %10, align 8, !tbaa !5343
  call void @llvm.dbg.declare(metadata ptr %10, metadata !5609, metadata !DIExpression()), !dbg !5615
  store i64 %4, ptr %11, align 8, !tbaa !5352
  call void @llvm.dbg.declare(metadata ptr %11, metadata !5610, metadata !DIExpression()), !dbg !5616
  %13 = zext i1 %5 to i8
  store i8 %13, ptr %12, align 1, !tbaa !5617
  call void @llvm.dbg.declare(metadata ptr %12, metadata !5611, metadata !DIExpression()), !dbg !5618
  %14 = load ptr, ptr %7, align 8
  ret i32 0, !dbg !5619
}

; Function Attrs: mustprogress nounwind uwtable
define linkonce_odr dso_local noundef nonnull align 4 dereferenceable(4) ptr @_ZN5Fpipe7writeFdEv(ptr noundef nonnull align 4 dereferenceable(8) %0) #10 comdat align 2 !dbg !5620 {
  %2 = alloca ptr, align 8
  store ptr %0, ptr %2, align 8, !tbaa !5343
  call void @llvm.dbg.declare(metadata ptr %2, metadata !5622, metadata !DIExpression()), !dbg !5623
  %3 = load ptr, ptr %2, align 8
  %4 = getelementptr inbounds %class.Fpipe, ptr %3, i32 0, i32 1, !dbg !5624
  ret ptr %4, !dbg !5625
}

; Function Attrs: mustprogress nounwind uwtable
define linkonce_odr dso_local noundef nonnull align 4 dereferenceable(4) ptr @_ZN5Fpipe6readFdEv(ptr noundef nonnull align 4 dereferenceable(8) %0) #10 comdat align 2 !dbg !5626 {
  %2 = alloca ptr, align 8
  store ptr %0, ptr %2, align 8, !tbaa !5343
  call void @llvm.dbg.declare(metadata ptr %2, metadata !5628, metadata !DIExpression()), !dbg !5629
  %3 = load ptr, ptr %2, align 8
  %4 = getelementptr inbounds %class.Fpipe, ptr %3, i32 0, i32 0, !dbg !5630
  ret ptr %4, !dbg !5631
}

; Function Attrs: mustprogress nounwind uwtable
define linkonce_odr dso_local void @_ZN12ReportWriter15setSectionStatsERK8FdBuffer(ptr noundef nonnull align 1 dereferenceable(1) %0, ptr noundef nonnull align 1 dereferenceable(1) %1) #10 comdat align 2 !dbg !5632 {
  %3 = alloca ptr, align 8
  %4 = alloca ptr, align 8
  store ptr %0, ptr %3, align 8, !tbaa !5343
  call void @llvm.dbg.declare(metadata ptr %3, metadata !5634, metadata !DIExpression()), !dbg !5636
  store ptr %1, ptr %4, align 8, !tbaa !5343
  call void @llvm.dbg.declare(metadata ptr %4, metadata !5635, metadata !DIExpression()), !dbg !5637
  %5 = load ptr, ptr %3, align 8
  ret void, !dbg !5638
}

; Function Attrs: mustprogress nounwind uwtable
define linkonce_odr dso_local noundef zeroext i1 @_ZNK8FdBuffer8timedOutEv(ptr noundef nonnull align 1 dereferenceable(1) %0) #10 comdat align 2 !dbg !5639 {
  %2 = alloca ptr, align 8
  store ptr %0, ptr %2, align 8, !tbaa !5343
  call void @llvm.dbg.declare(metadata ptr %2, metadata !5641, metadata !DIExpression()), !dbg !5643
  %3 = load ptr, ptr %2, align 8
  ret i1 false, !dbg !5644
}

declare !dbg !5645 void @_Z10kill_childi(i32 noundef) #2

declare !dbg !5648 noundef i32 @_Z10wait_childi(i32 noundef) #2

; Function Attrs: mustprogress nounwind uwtable
define linkonce_odr dso_local noundef i32 @_ZN12ReportWriter12writeSectionERK8FdBuffer(ptr noundef nonnull align 1 dereferenceable(1) %0, ptr noundef nonnull align 1 dereferenceable(1) %1) #10 comdat align 2 !dbg !5651 {
  %3 = alloca ptr, align 8
  %4 = alloca ptr, align 8
  store ptr %0, ptr %3, align 8, !tbaa !5343
  call void @llvm.dbg.declare(metadata ptr %3, metadata !5653, metadata !DIExpression()), !dbg !5655
  store ptr %1, ptr %4, align 8, !tbaa !5343
  call void @llvm.dbg.declare(metadata ptr %4, metadata !5654, metadata !DIExpression()), !dbg !5656
  %5 = load ptr, ptr %3, align 8
  ret i32 0, !dbg !5657
}

; Function Attrs: uwtable
define dso_local void @_ZN11GZipSectionC2EiPKcz(ptr noundef nonnull align 8 dereferenceable(64) %0, i32 noundef %1, ptr noundef %2, ...) unnamed_addr #0 align 2 personality ptr @__gxx_personality_v0 !dbg !5658 {
  %4 = alloca ptr, align 8
  %5 = alloca i32, align 4
  %6 = alloca ptr, align 8
  %7 = alloca [1 x %struct.__va_list_tag], align 16
  %8 = alloca ptr, align 8
  %9 = alloca i32, align 4
  %10 = alloca %class.String8, align 8
  %11 = alloca i32, align 4
  store ptr %0, ptr %4, align 8, !tbaa !5343
  call void @llvm.dbg.declare(metadata ptr %4, metadata !5676, metadata !DIExpression()), !dbg !5688
  store i32 %1, ptr %5, align 4, !tbaa !5348
  call void @llvm.dbg.declare(metadata ptr %5, metadata !5678, metadata !DIExpression()), !dbg !5689
  store ptr %2, ptr %6, align 8, !tbaa !5343
  call void @llvm.dbg.declare(metadata ptr %6, metadata !5679, metadata !DIExpression()), !dbg !5690
  %12 = load ptr, ptr %4, align 8
  %13 = load i32, ptr %5, align 4, !dbg !5691, !tbaa !5348
  call void @_ZN7SectionC2Ei(ptr noundef nonnull align 8 dereferenceable(56) %12, i32 noundef %13), !dbg !5692
  store ptr getelementptr inbounds ({ [5 x ptr] }, ptr @_ZTV11GZipSection, i32 0, inrange i32 0, i32 2), ptr %12, align 8, !dbg !5693, !tbaa !5359
  call void @llvm.lifetime.start.p0(i64 24, ptr %7) #16, !dbg !5694
  call void @llvm.dbg.declare(metadata ptr %7, metadata !5680, metadata !DIExpression()), !dbg !5695
  %14 = getelementptr inbounds [1 x %struct.__va_list_tag], ptr %7, i64 0, i64 0, !dbg !5696
  call void @llvm.va_start(ptr %14), !dbg !5696
  %15 = load ptr, ptr %6, align 8, !dbg !5697, !tbaa !5343
  %16 = getelementptr inbounds [1 x %struct.__va_list_tag], ptr %7, i64 0, i64 0, !dbg !5698
  %17 = invoke noundef ptr @_Z7varargsPKcP13__va_list_tag(ptr noundef %15, ptr noundef %16)
          to label %18 unwind label %33, !dbg !5699

18:                                               ; preds = %3
  %19 = getelementptr inbounds %class.GZipSection, ptr %12, i32 0, i32 1, !dbg !5700
  store ptr %17, ptr %19, align 8, !dbg !5701, !tbaa !5702
  %20 = getelementptr inbounds [1 x %struct.__va_list_tag], ptr %7, i64 0, i64 0, !dbg !5704
  call void @llvm.va_end(ptr %20), !dbg !5704
  call void @llvm.lifetime.start.p0(i64 32, ptr %10) #16, !dbg !5705
  invoke void @_ZN7String8C2EPKc(ptr noundef nonnull align 8 dereferenceable(32) %10, ptr noundef @.str.2)
          to label %21 unwind label %37, !dbg !5705

21:                                               ; preds = %18
  %22 = getelementptr inbounds %class.Section, ptr %12, i32 0, i32 3, !dbg !5706
  %23 = call noundef nonnull align 8 dereferenceable(32) ptr @_ZN7String8aSEOS_(ptr noundef nonnull align 8 dereferenceable(32) %22, ptr noundef nonnull align 8 dereferenceable(32) %10) #16, !dbg !5707
  call void @_ZN7String8D2Ev(ptr noundef nonnull align 8 dereferenceable(32) %10) #16, !dbg !5706
  call void @llvm.lifetime.end.p0(i64 32, ptr %10) #16, !dbg !5706
  call void @llvm.lifetime.start.p0(i64 4, ptr %11) #16, !dbg !5708
  call void @llvm.dbg.declare(metadata ptr %11, metadata !5686, metadata !DIExpression()), !dbg !5709
  store i32 0, ptr %11, align 4, !dbg !5709, !tbaa !5348
  br label %24, !dbg !5708

24:                                               ; preds = %54, %21
  %25 = getelementptr inbounds %class.GZipSection, ptr %12, i32 0, i32 1, !dbg !5710
  %26 = load ptr, ptr %25, align 8, !dbg !5710, !tbaa !5702
  %27 = load i32, ptr %11, align 4, !dbg !5712, !tbaa !5348
  %28 = sext i32 %27 to i64, !dbg !5710
  %29 = getelementptr inbounds ptr, ptr %26, i64 %28, !dbg !5710
  %30 = load ptr, ptr %29, align 8, !dbg !5710, !tbaa !5343
  %31 = icmp ne ptr %30, null, !dbg !5713
  br i1 %31, label %41, label %32, !dbg !5714

32:                                               ; preds = %24
  call void @llvm.lifetime.end.p0(i64 4, ptr %11) #16, !dbg !5715
  br label %61

33:                                               ; preds = %3
  %34 = landingpad { ptr, i32 }
          cleanup, !dbg !5716
  %35 = extractvalue { ptr, i32 } %34, 0, !dbg !5716
  store ptr %35, ptr %8, align 8, !dbg !5716
  %36 = extractvalue { ptr, i32 } %34, 1, !dbg !5716
  store i32 %36, ptr %9, align 4, !dbg !5716
  br label %62, !dbg !5716

37:                                               ; preds = %18
  %38 = landingpad { ptr, i32 }
          cleanup, !dbg !5716
  %39 = extractvalue { ptr, i32 } %38, 0, !dbg !5716
  store ptr %39, ptr %8, align 8, !dbg !5716
  %40 = extractvalue { ptr, i32 } %38, 1, !dbg !5716
  store i32 %40, ptr %9, align 4, !dbg !5716
  call void @llvm.lifetime.end.p0(i64 32, ptr %10) #16, !dbg !5706
  br label %62, !dbg !5706

41:                                               ; preds = %24
  %42 = getelementptr inbounds %class.Section, ptr %12, i32 0, i32 3, !dbg !5717
  %43 = invoke noundef nonnull align 8 dereferenceable(32) ptr @_ZN7String8pLEPKc(ptr noundef nonnull align 8 dereferenceable(32) %42, ptr noundef @.str.3)
          to label %44 unwind label %57, !dbg !5719

44:                                               ; preds = %41
  %45 = getelementptr inbounds %class.GZipSection, ptr %12, i32 0, i32 1, !dbg !5720
  %46 = load ptr, ptr %45, align 8, !dbg !5720, !tbaa !5702
  %47 = load i32, ptr %11, align 4, !dbg !5721, !tbaa !5348
  %48 = sext i32 %47 to i64, !dbg !5720
  %49 = getelementptr inbounds ptr, ptr %46, i64 %48, !dbg !5720
  %50 = load ptr, ptr %49, align 8, !dbg !5720, !tbaa !5343
  %51 = getelementptr inbounds %class.Section, ptr %12, i32 0, i32 3, !dbg !5722
  %52 = invoke noundef nonnull align 8 dereferenceable(32) ptr @_ZN7String8pLEPKc(ptr noundef nonnull align 8 dereferenceable(32) %51, ptr noundef %50)
          to label %53 unwind label %57, !dbg !5723

53:                                               ; preds = %44
  br label %54, !dbg !5724

54:                                               ; preds = %53
  %55 = load i32, ptr %11, align 4, !dbg !5725, !tbaa !5348
  %56 = add nsw i32 %55, 1, !dbg !5725
  store i32 %56, ptr %11, align 4, !dbg !5725, !tbaa !5348
  br label %24, !dbg !5715, !llvm.loop !5726

57:                                               ; preds = %44, %41
  %58 = landingpad { ptr, i32 }
          cleanup, !dbg !5730
  %59 = extractvalue { ptr, i32 } %58, 0, !dbg !5730
  store ptr %59, ptr %8, align 8, !dbg !5730
  %60 = extractvalue { ptr, i32 } %58, 1, !dbg !5730
  store i32 %60, ptr %9, align 4, !dbg !5730
  call void @llvm.lifetime.end.p0(i64 4, ptr %11) #16, !dbg !5715
  br label %62, !dbg !5715

61:                                               ; preds = %32
  call void @llvm.lifetime.end.p0(i64 24, ptr %7) #16, !dbg !5731
  ret void, !dbg !5731

62:                                               ; preds = %57, %37, %33
  call void @llvm.lifetime.end.p0(i64 24, ptr %7) #16, !dbg !5731
  call void @_ZN7SectionD2Ev(ptr noundef nonnull align 8 dereferenceable(56) %12) #16, !dbg !5716
  br label %63, !dbg !5716

63:                                               ; preds = %62
  %64 = load ptr, ptr %8, align 8, !dbg !5716
  %65 = load i32, ptr %9, align 4, !dbg !5716
  %66 = insertvalue { ptr, i32 } poison, ptr %64, 0, !dbg !5716
  %67 = insertvalue { ptr, i32 } %66, i32 %65, 1, !dbg !5716
  resume { ptr, i32 } %67, !dbg !5716
}

declare void @_ZN7SectionC2Ei(ptr noundef nonnull align 8 dereferenceable(56), i32 noundef) unnamed_addr #2

; Function Attrs: nocallback nofree nosync nounwind willreturn
declare void @llvm.va_start(ptr) #13

declare !dbg !5732 noundef ptr @_Z7varargsPKcP13__va_list_tag(ptr noundef, ptr noundef) #2

; Function Attrs: nocallback nofree nosync nounwind willreturn
declare void @llvm.va_end(ptr) #13

; Function Attrs: nounwind uwtable
define dso_local void @_ZN11GZipSectionD2Ev(ptr noundef nonnull align 8 dereferenceable(64) %0) unnamed_addr #8 align 2 !dbg !5735 {
  %2 = alloca ptr, align 8
  store ptr %0, ptr %2, align 8, !tbaa !5343
  call void @llvm.dbg.declare(metadata ptr %2, metadata !5737, metadata !DIExpression()), !dbg !5738
  %3 = load ptr, ptr %2, align 8
  store ptr getelementptr inbounds ({ [5 x ptr] }, ptr @_ZTV11GZipSection, i32 0, inrange i32 0, i32 2), ptr %3, align 8, !dbg !5739, !tbaa !5359
  %4 = getelementptr inbounds %class.GZipSection, ptr %3, i32 0, i32 1, !dbg !5740
  %5 = load ptr, ptr %4, align 8, !dbg !5740, !tbaa !5702
  call void @free(ptr noundef %5) #16, !dbg !5742
  call void @_ZN7SectionD2Ev(ptr noundef nonnull align 8 dereferenceable(56) %3) #16, !dbg !5743
  ret void, !dbg !5744
}

; Function Attrs: nounwind
declare !dbg !5745 void @free(ptr noundef) #7

; Function Attrs: nounwind uwtable
define dso_local void @_ZN11GZipSectionD0Ev(ptr noundef nonnull align 8 dereferenceable(64) %0) unnamed_addr #8 align 2 !dbg !5746 {
  %2 = alloca ptr, align 8
  store ptr %0, ptr %2, align 8, !tbaa !5343
  call void @llvm.dbg.declare(metadata ptr %2, metadata !5748, metadata !DIExpression()), !dbg !5749
  %3 = load ptr, ptr %2, align 8
  call void @_ZN11GZipSectionD1Ev(ptr noundef nonnull align 8 dereferenceable(64) %3) #16, !dbg !5750
  call void @_ZdlPv(ptr noundef %3) #27, !dbg !5750
  ret void, !dbg !5751
}

; Function Attrs: mustprogress uwtable
define dso_local noundef i32 @_ZNK11GZipSection7ExecuteEP12ReportWriter(ptr noundef nonnull align 8 dereferenceable(64) %0, ptr noundef %1) unnamed_addr #5 align 2 !dbg !5752 {
  %3 = alloca i32, align 4
  %4 = alloca ptr, align 8
  %5 = alloca ptr, align 8
  %6 = alloca i32, align 4
  %7 = alloca %class.unique_fd, align 4
  %8 = alloca i32, align 4
  %9 = alloca %class.FdBuffer, align 1
  %10 = alloca %class.Fpipe, align 4
  %11 = alloca %class.Fpipe, align 4
  %12 = alloca i32, align 4
  %13 = alloca %class.sp, align 8
  %14 = alloca i64, align 8
  %15 = alloca i64, align 8
  %16 = alloca i64, align 8
  %17 = alloca i64, align 8
  %18 = alloca i32, align 4
  %19 = alloca i32, align 4
  %20 = alloca i64, align 8
  store ptr %0, ptr %4, align 8, !tbaa !5343
  call void @llvm.dbg.declare(metadata ptr %4, metadata !5754, metadata !DIExpression()), !dbg !5772
  store ptr %1, ptr %5, align 8, !tbaa !5343
  call void @llvm.dbg.declare(metadata ptr %5, metadata !5756, metadata !DIExpression()), !dbg !5773
  %21 = load ptr, ptr %4, align 8
  call void @llvm.lifetime.start.p0(i64 4, ptr %6) #16, !dbg !5774
  call void @llvm.dbg.declare(metadata ptr %6, metadata !5757, metadata !DIExpression()), !dbg !5775
  store i32 0, ptr %6, align 4, !dbg !5775, !tbaa !5348
  call void @llvm.lifetime.start.p0(i64 4, ptr %7) #16, !dbg !5776
  call void @llvm.dbg.declare(metadata ptr %7, metadata !5758, metadata !DIExpression()), !dbg !5777
  call void @_ZN9unique_fdC2Ev(ptr noundef nonnull align 4 dereferenceable(4) %7), !dbg !5777
  br label %22, !dbg !5778

22:                                               ; preds = %41, %2
  %23 = getelementptr inbounds %class.GZipSection, ptr %21, i32 0, i32 1, !dbg !5779
  %24 = load ptr, ptr %23, align 8, !dbg !5779, !tbaa !5702
  %25 = load i32, ptr %6, align 4, !dbg !5780, !tbaa !5348
  %26 = sext i32 %25 to i64, !dbg !5779
  %27 = getelementptr inbounds ptr, ptr %24, i64 %26, !dbg !5779
  %28 = load ptr, ptr %27, align 8, !dbg !5779, !tbaa !5343
  %29 = icmp ne ptr %28, null, !dbg !5781
  br i1 %29, label %30, label %44, !dbg !5778

30:                                               ; preds = %22
  %31 = getelementptr inbounds %class.GZipSection, ptr %21, i32 0, i32 1, !dbg !5782
  %32 = load ptr, ptr %31, align 8, !dbg !5782, !tbaa !5702
  %33 = load i32, ptr %6, align 4, !dbg !5784, !tbaa !5348
  %34 = sext i32 %33 to i64, !dbg !5782
  %35 = getelementptr inbounds ptr, ptr %32, i64 %34, !dbg !5782
  %36 = load ptr, ptr %35, align 8, !dbg !5782, !tbaa !5343
  %37 = call i32 (ptr, i32, ...) @open(ptr noundef %36, i32 noundef 524288), !dbg !5785
  call void @_ZN9unique_fd5resetEi(ptr noundef nonnull align 4 dereferenceable(4) %7, i32 noundef %37), !dbg !5786
  %38 = call noundef i32 @_ZNK9unique_fd3getEv(ptr noundef nonnull align 4 dereferenceable(4) %7), !dbg !5787
  %39 = icmp ne i32 %38, -1, !dbg !5789
  br i1 %39, label %40, label %41, !dbg !5790

40:                                               ; preds = %30
  br label %44, !dbg !5791

41:                                               ; preds = %30
  %42 = load i32, ptr %6, align 4, !dbg !5793, !tbaa !5348
  %43 = add nsw i32 %42, 1, !dbg !5793
  store i32 %43, ptr %6, align 4, !dbg !5793, !tbaa !5348
  br label %22, !dbg !5778, !llvm.loop !5794

44:                                               ; preds = %40, %22
  %45 = call noundef i32 @_ZNK9unique_fd3getEv(ptr noundef nonnull align 4 dereferenceable(4) %7), !dbg !5796
  %46 = icmp eq i32 %45, -1, !dbg !5798
  br i1 %46, label %47, label %48, !dbg !5799

47:                                               ; preds = %44
  store i32 0, ptr %3, align 4, !dbg !5800
  store i32 1, ptr %8, align 4
  br label %155, !dbg !5800

48:                                               ; preds = %44
  call void @llvm.lifetime.start.p0(i64 1, ptr %9) #16, !dbg !5802
  call void @llvm.dbg.declare(metadata ptr %9, metadata !5759, metadata !DIExpression()), !dbg !5803
  call void @llvm.lifetime.start.p0(i64 8, ptr %10) #16, !dbg !5804
  call void @llvm.dbg.declare(metadata ptr %10, metadata !5760, metadata !DIExpression()), !dbg !5805
  call void @_ZN5FpipeC2Ev(ptr noundef nonnull align 4 dereferenceable(8) %10), !dbg !5805
  call void @llvm.lifetime.start.p0(i64 8, ptr %11) #16, !dbg !5806
  call void @llvm.dbg.declare(metadata ptr %11, metadata !5761, metadata !DIExpression()), !dbg !5807
  call void @_ZN5FpipeC2Ev(ptr noundef nonnull align 4 dereferenceable(8) %11), !dbg !5807
  %49 = call noundef zeroext i1 @_ZN5Fpipe4initEv(ptr noundef nonnull align 4 dereferenceable(8) %10), !dbg !5808
  br i1 %49, label %50, label %52, !dbg !5810

50:                                               ; preds = %48
  %51 = call noundef zeroext i1 @_ZN5Fpipe4initEv(ptr noundef nonnull align 4 dereferenceable(8) %11), !dbg !5811
  br i1 %51, label %56, label %52, !dbg !5812

52:                                               ; preds = %50, %48
  %53 = call ptr @__errno_location() #28, !dbg !5813
  %54 = load i32, ptr %53, align 4, !dbg !5813, !tbaa !5348
  %55 = sub nsw i32 0, %54, !dbg !5815
  store i32 %55, ptr %3, align 4, !dbg !5816
  store i32 1, ptr %8, align 4
  br label %154, !dbg !5816

56:                                               ; preds = %50
  call void @llvm.lifetime.start.p0(i64 4, ptr %12) #16, !dbg !5817
  call void @llvm.dbg.declare(metadata ptr %12, metadata !5762, metadata !DIExpression()), !dbg !5818
  %57 = call noundef i32 @_Z16fork_execute_cmdPKPcP5FpipeS3_(ptr noundef @GZIP, ptr noundef %10, ptr noundef %11), !dbg !5819
  store i32 %57, ptr %12, align 4, !dbg !5818, !tbaa !5348
  %58 = load i32, ptr %12, align 4, !dbg !5820, !tbaa !5348
  %59 = icmp eq i32 %58, -1, !dbg !5822
  br i1 %59, label %60, label %64, !dbg !5823

60:                                               ; preds = %56
  %61 = call ptr @__errno_location() #28, !dbg !5824
  %62 = load i32, ptr %61, align 4, !dbg !5824, !tbaa !5348
  %63 = sub nsw i32 0, %62, !dbg !5826
  store i32 %63, ptr %3, align 4, !dbg !5827
  store i32 1, ptr %8, align 4
  br label %153, !dbg !5827

64:                                               ; preds = %56
  call void @llvm.lifetime.start.p0(i64 8, ptr %13) #16, !dbg !5828
  call void @llvm.dbg.declare(metadata ptr %13, metadata !5763, metadata !DIExpression()), !dbg !5829
  %65 = call ptr @_ZN8FdBuffer4dataEv(ptr noundef nonnull align 1 dereferenceable(1) %9), !dbg !5830
  %66 = getelementptr inbounds %class.sp, ptr %13, i32 0, i32 0, !dbg !5830
  store ptr %65, ptr %66, align 8, !dbg !5830
  %67 = call noundef ptr @_ZNK2spI13EncodedBufferEptEv(ptr noundef nonnull align 8 dereferenceable(8) %13), !dbg !5831
  call void @_ZN13EncodedBuffer11writeHeaderEjj(ptr noundef nonnull align 1 dereferenceable(1) %67, i32 noundef 1, i32 noundef 2), !dbg !5832
  call void @llvm.lifetime.start.p0(i64 8, ptr %14) #16, !dbg !5833
  call void @llvm.dbg.declare(metadata ptr %14, metadata !5764, metadata !DIExpression()), !dbg !5834
  %68 = getelementptr inbounds %class.GZipSection, ptr %21, i32 0, i32 1, !dbg !5835
  %69 = load ptr, ptr %68, align 8, !dbg !5835, !tbaa !5702
  %70 = load i32, ptr %6, align 4, !dbg !5836, !tbaa !5348
  %71 = sext i32 %70 to i64, !dbg !5835
  %72 = getelementptr inbounds ptr, ptr %69, i64 %71, !dbg !5835
  %73 = load ptr, ptr %72, align 8, !dbg !5835, !tbaa !5343
  %74 = call i64 @strlen(ptr noundef %73) #26, !dbg !5837
  store i64 %74, ptr %14, align 8, !dbg !5834, !tbaa !5352
  %75 = call noundef ptr @_ZNK2spI13EncodedBufferEptEv(ptr noundef nonnull align 8 dereferenceable(8) %13), !dbg !5838
  %76 = load i64, ptr %14, align 8, !dbg !5839, !tbaa !5352
  %77 = trunc i64 %76 to i32, !dbg !5839
  call void @_ZN13EncodedBuffer16writeRawVarint32Ej(ptr noundef nonnull align 1 dereferenceable(1) %75, i32 noundef %77), !dbg !5840
  call void @llvm.lifetime.start.p0(i64 8, ptr %15) #16, !dbg !5841
  call void @llvm.dbg.declare(metadata ptr %15, metadata !5765, metadata !DIExpression()), !dbg !5842
  store i64 0, ptr %15, align 8, !dbg !5842, !tbaa !5352
  br label %78, !dbg !5841

78:                                               ; preds = %94, %64
  %79 = load i64, ptr %15, align 8, !dbg !5843, !tbaa !5352
  %80 = load i64, ptr %14, align 8, !dbg !5845, !tbaa !5352
  %81 = icmp ult i64 %79, %80, !dbg !5846
  br i1 %81, label %83, label %82, !dbg !5847

82:                                               ; preds = %78
  store i32 4, ptr %8, align 4
  call void @llvm.lifetime.end.p0(i64 8, ptr %15) #16, !dbg !5848
  br label %97

83:                                               ; preds = %78
  %84 = call noundef ptr @_ZNK2spI13EncodedBufferEptEv(ptr noundef nonnull align 8 dereferenceable(8) %13), !dbg !5849
  %85 = getelementptr inbounds %class.GZipSection, ptr %21, i32 0, i32 1, !dbg !5851
  %86 = load ptr, ptr %85, align 8, !dbg !5851, !tbaa !5702
  %87 = load i32, ptr %6, align 4, !dbg !5852, !tbaa !5348
  %88 = sext i32 %87 to i64, !dbg !5851
  %89 = getelementptr inbounds ptr, ptr %86, i64 %88, !dbg !5851
  %90 = load ptr, ptr %89, align 8, !dbg !5851, !tbaa !5343
  %91 = load i64, ptr %15, align 8, !dbg !5853, !tbaa !5352
  %92 = getelementptr inbounds i8, ptr %90, i64 %91, !dbg !5851
  %93 = load i8, ptr %92, align 1, !dbg !5851, !tbaa !5854
  call void @_ZN13EncodedBuffer12writeRawByteEh(ptr noundef nonnull align 1 dereferenceable(1) %84, i8 noundef zeroext %93), !dbg !5855
  br label %94, !dbg !5856

94:                                               ; preds = %83
  %95 = load i64, ptr %15, align 8, !dbg !5857, !tbaa !5352
  %96 = add i64 %95, 1, !dbg !5857
  store i64 %96, ptr %15, align 8, !dbg !5857, !tbaa !5352
  br label %78, !dbg !5848, !llvm.loop !5858

97:                                               ; preds = %82
  %98 = call noundef ptr @_ZNK2spI13EncodedBufferEptEv(ptr noundef nonnull align 8 dereferenceable(8) %13), !dbg !5860
  call void @_ZN13EncodedBuffer11writeHeaderEjj(ptr noundef nonnull align 1 dereferenceable(1) %98, i32 noundef 2, i32 noundef 2), !dbg !5861
  call void @llvm.lifetime.start.p0(i64 8, ptr %16) #16, !dbg !5862
  call void @llvm.dbg.declare(metadata ptr %16, metadata !5767, metadata !DIExpression()), !dbg !5863
  %99 = call noundef ptr @_ZNK2spI13EncodedBufferEptEv(ptr noundef nonnull align 8 dereferenceable(8) %13), !dbg !5864
  %100 = call noundef ptr @_ZN13EncodedBuffer2wpEv(ptr noundef nonnull align 1 dereferenceable(1) %99), !dbg !5865
  %101 = call noundef i64 @_ZNK13EncodedBuffer16EditablePosition3posEv(ptr noundef nonnull align 1 dereferenceable(1) %100), !dbg !5866
  store i64 %101, ptr %16, align 8, !dbg !5863, !tbaa !5352
  %102 = call noundef ptr @_ZNK2spI13EncodedBufferEptEv(ptr noundef nonnull align 8 dereferenceable(8) %13), !dbg !5867
  %103 = call noundef ptr @_ZN13EncodedBuffer2wpEv(ptr noundef nonnull align 1 dereferenceable(1) %102), !dbg !5868
  call void @_ZN13EncodedBuffer16EditablePosition4moveEm(ptr noundef nonnull align 1 dereferenceable(1) %103, i64 noundef 8), !dbg !5869
  call void @llvm.lifetime.start.p0(i64 8, ptr %17) #16, !dbg !5870
  call void @llvm.dbg.declare(metadata ptr %17, metadata !5768, metadata !DIExpression()), !dbg !5871
  %104 = call noundef ptr @_ZNK2spI13EncodedBufferEptEv(ptr noundef nonnull align 8 dereferenceable(8) %13), !dbg !5872
  %105 = call noundef ptr @_ZN13EncodedBuffer2wpEv(ptr noundef nonnull align 1 dereferenceable(1) %104), !dbg !5873
  %106 = call noundef i64 @_ZNK13EncodedBuffer16EditablePosition3posEv(ptr noundef nonnull align 1 dereferenceable(1) %105), !dbg !5874
  store i64 %106, ptr %17, align 8, !dbg !5871, !tbaa !5352
  call void @llvm.lifetime.start.p0(i64 4, ptr %18) #16, !dbg !5875
  call void @llvm.dbg.declare(metadata ptr %18, metadata !5769, metadata !DIExpression()), !dbg !5876
  %107 = call noundef i32 @_ZNK9unique_fd3getEv(ptr noundef nonnull align 4 dereferenceable(4) %7), !dbg !5877
  %108 = call noundef nonnull align 4 dereferenceable(4) ptr @_ZN5Fpipe7writeFdEv(ptr noundef nonnull align 4 dereferenceable(8) %10), !dbg !5878
  %109 = call noundef nonnull align 4 dereferenceable(4) ptr @_ZN5Fpipe6readFdEv(ptr noundef nonnull align 4 dereferenceable(8) %11), !dbg !5879
  %110 = getelementptr inbounds %class.Section, ptr %21, i32 0, i32 2, !dbg !5880
  %111 = load i64, ptr %110, align 8, !dbg !5880, !tbaa !5509
  %112 = getelementptr inbounds %class.GZipSection, ptr %21, i32 0, i32 1, !dbg !5881
  %113 = load ptr, ptr %112, align 8, !dbg !5881, !tbaa !5702
  %114 = load i32, ptr %6, align 4, !dbg !5882, !tbaa !5348
  %115 = sext i32 %114 to i64, !dbg !5881
  %116 = getelementptr inbounds ptr, ptr %113, i64 %115, !dbg !5881
  %117 = load ptr, ptr %116, align 8, !dbg !5881, !tbaa !5343
  %118 = call noundef zeroext i1 @_ZL7isSysfsPKc(ptr noundef %117), !dbg !5883
  %119 = call noundef i32 @_ZN8FdBuffer25readProcessedDataInStreamEiO9unique_fdS1_lb(ptr noundef nonnull align 1 dereferenceable(1) %9, i32 noundef %107, ptr noundef nonnull align 4 dereferenceable(4) %108, ptr noundef nonnull align 4 dereferenceable(4) %109, i64 noundef %111, i1 noundef zeroext %118), !dbg !5884
  store i32 %119, ptr %18, align 4, !dbg !5876, !tbaa !5348
  %120 = load ptr, ptr %5, align 8, !dbg !5885, !tbaa !5343
  call void @_ZN12ReportWriter15setSectionStatsERK8FdBuffer(ptr noundef nonnull align 1 dereferenceable(1) %120, ptr noundef nonnull align 1 dereferenceable(1) %9), !dbg !5886
  %121 = load i32, ptr %18, align 4, !dbg !5887, !tbaa !5348
  %122 = icmp ne i32 %121, 0, !dbg !5889
  br i1 %122, label %125, label %123, !dbg !5890

123:                                              ; preds = %97
  %124 = call noundef zeroext i1 @_ZNK8FdBuffer8timedOutEv(ptr noundef nonnull align 1 dereferenceable(1) %9), !dbg !5891
  br i1 %124, label %125, label %128, !dbg !5892

125:                                              ; preds = %123, %97
  %126 = load i32, ptr %12, align 4, !dbg !5893, !tbaa !5348
  call void @_Z10kill_childi(i32 noundef %126), !dbg !5895
  %127 = load i32, ptr %18, align 4, !dbg !5896, !tbaa !5348
  store i32 %127, ptr %3, align 4, !dbg !5897
  store i32 1, ptr %8, align 4
  br label %152, !dbg !5897

128:                                              ; preds = %123
  call void @llvm.lifetime.start.p0(i64 4, ptr %19) #16, !dbg !5898
  call void @llvm.dbg.declare(metadata ptr %19, metadata !5770, metadata !DIExpression()), !dbg !5899
  %129 = load i32, ptr %12, align 4, !dbg !5900, !tbaa !5348
  %130 = call noundef i32 @_Z10wait_childi(i32 noundef %129), !dbg !5901
  store i32 %130, ptr %19, align 4, !dbg !5899, !tbaa !5348
  %131 = load i32, ptr %19, align 4, !dbg !5902, !tbaa !5348
  %132 = icmp ne i32 %131, 0, !dbg !5904
  br i1 %132, label %133, label %135, !dbg !5905

133:                                              ; preds = %128
  %134 = load i32, ptr %19, align 4, !dbg !5906, !tbaa !5348
  store i32 %134, ptr %3, align 4, !dbg !5908
  store i32 1, ptr %8, align 4
  br label %151, !dbg !5908

135:                                              ; preds = %128
  call void @llvm.lifetime.start.p0(i64 8, ptr %20) #16, !dbg !5909
  call void @llvm.dbg.declare(metadata ptr %20, metadata !5771, metadata !DIExpression()), !dbg !5910
  %136 = call noundef i64 @_ZNK8FdBuffer4sizeEv(ptr noundef nonnull align 1 dereferenceable(1) %9), !dbg !5911
  %137 = load i64, ptr %17, align 8, !dbg !5912, !tbaa !5352
  %138 = sub i64 %136, %137, !dbg !5913
  store i64 %138, ptr %20, align 8, !dbg !5910, !tbaa !5352
  %139 = call noundef ptr @_ZNK2spI13EncodedBufferEptEv(ptr noundef nonnull align 8 dereferenceable(8) %13), !dbg !5914
  %140 = call noundef ptr @_ZN13EncodedBuffer2wpEv(ptr noundef nonnull align 1 dereferenceable(1) %139), !dbg !5915
  %141 = call noundef ptr @_ZN13EncodedBuffer16EditablePosition6rewindEv(ptr noundef nonnull align 1 dereferenceable(1) %140), !dbg !5916
  %142 = load i64, ptr %16, align 8, !dbg !5917, !tbaa !5352
  call void @_ZN13EncodedBuffer16EditablePosition4moveEm(ptr noundef nonnull align 1 dereferenceable(1) %141, i64 noundef %142), !dbg !5918
  %143 = call noundef ptr @_ZNK2spI13EncodedBufferEptEv(ptr noundef nonnull align 8 dereferenceable(8) %13), !dbg !5919
  %144 = load i64, ptr %20, align 8, !dbg !5920, !tbaa !5352
  %145 = trunc i64 %144 to i32, !dbg !5920
  call void @_ZN13EncodedBuffer16writeRawVarint32Ej(ptr noundef nonnull align 1 dereferenceable(1) %143, i32 noundef %145), !dbg !5921
  %146 = call noundef ptr @_ZNK2spI13EncodedBufferEptEv(ptr noundef nonnull align 8 dereferenceable(8) %13), !dbg !5922
  %147 = load i64, ptr %17, align 8, !dbg !5923, !tbaa !5352
  %148 = load i64, ptr %20, align 8, !dbg !5924, !tbaa !5352
  call void @_ZN13EncodedBuffer4copyEmm(ptr noundef nonnull align 1 dereferenceable(1) %146, i64 noundef %147, i64 noundef %148), !dbg !5925
  %149 = load ptr, ptr %5, align 8, !dbg !5926, !tbaa !5343
  %150 = call noundef i32 @_ZN12ReportWriter12writeSectionERK8FdBuffer(ptr noundef nonnull align 1 dereferenceable(1) %149, ptr noundef nonnull align 1 dereferenceable(1) %9), !dbg !5927
  store i32 %150, ptr %3, align 4, !dbg !5928
  store i32 1, ptr %8, align 4
  call void @llvm.lifetime.end.p0(i64 8, ptr %20) #16, !dbg !5929
  br label %151

151:                                              ; preds = %135, %133
  call void @llvm.lifetime.end.p0(i64 4, ptr %19) #16, !dbg !5929
  br label %152

152:                                              ; preds = %151, %125
  call void @llvm.lifetime.end.p0(i64 4, ptr %18) #16, !dbg !5929
  call void @llvm.lifetime.end.p0(i64 8, ptr %17) #16, !dbg !5929
  call void @llvm.lifetime.end.p0(i64 8, ptr %16) #16, !dbg !5929
  call void @llvm.lifetime.end.p0(i64 8, ptr %14) #16, !dbg !5929
  call void @llvm.lifetime.end.p0(i64 8, ptr %13) #16, !dbg !5929
  br label %153

153:                                              ; preds = %152, %60
  call void @llvm.lifetime.end.p0(i64 4, ptr %12) #16, !dbg !5929
  br label %154

154:                                              ; preds = %153, %52
  call void @llvm.lifetime.end.p0(i64 8, ptr %11) #16, !dbg !5929
  call void @llvm.lifetime.end.p0(i64 8, ptr %10) #16, !dbg !5929
  call void @llvm.lifetime.end.p0(i64 1, ptr %9) #16, !dbg !5929
  br label %155

155:                                              ; preds = %154, %47
  call void @llvm.lifetime.end.p0(i64 4, ptr %7) #16, !dbg !5929
  call void @llvm.lifetime.end.p0(i64 4, ptr %6) #16, !dbg !5929
  %156 = load i32, ptr %3, align 4, !dbg !5929
  ret i32 %156, !dbg !5929
}

; Function Attrs: nounwind uwtable
define linkonce_odr dso_local void @_ZN9unique_fdC2Ev(ptr noundef nonnull align 4 dereferenceable(4) %0) unnamed_addr #8 comdat align 2 !dbg !5930 {
  %2 = alloca ptr, align 8
  store ptr %0, ptr %2, align 8, !tbaa !5343
  call void @llvm.dbg.declare(metadata ptr %2, metadata !5932, metadata !DIExpression()), !dbg !5933
  %3 = load ptr, ptr %2, align 8
  %4 = getelementptr inbounds %class.unique_fd, ptr %3, i32 0, i32 0, !dbg !5934
  store i32 -1, ptr %4, align 4, !dbg !5934, !tbaa !5553
  ret void, !dbg !5935
}

; Function Attrs: mustprogress nounwind uwtable
define linkonce_odr dso_local void @_ZN9unique_fd5resetEi(ptr noundef nonnull align 4 dereferenceable(4) %0, i32 noundef %1) #10 comdat align 2 !dbg !5936 {
  %3 = alloca ptr, align 8
  %4 = alloca i32, align 4
  store ptr %0, ptr %3, align 8, !tbaa !5343
  call void @llvm.dbg.declare(metadata ptr %3, metadata !5938, metadata !DIExpression()), !dbg !5940
  store i32 %1, ptr %4, align 4, !tbaa !5348
  call void @llvm.dbg.declare(metadata ptr %4, metadata !5939, metadata !DIExpression()), !dbg !5941
  %5 = load ptr, ptr %3, align 8
  %6 = load i32, ptr %4, align 4, !dbg !5942, !tbaa !5348
  %7 = getelementptr inbounds %class.unique_fd, ptr %5, i32 0, i32 0, !dbg !5943
  store i32 %6, ptr %7, align 4, !dbg !5944, !tbaa !5553
  ret void, !dbg !5945
}

declare !dbg !5946 noundef i32 @_Z16fork_execute_cmdPKPcP5FpipeS3_(ptr noundef, ptr noundef, ptr noundef) #2

; Function Attrs: mustprogress uwtable
define linkonce_odr dso_local ptr @_ZN8FdBuffer4dataEv(ptr noundef nonnull align 1 dereferenceable(1) %0) #5 comdat align 2 !dbg !5949 {
  %2 = alloca %class.sp, align 8
  %3 = alloca ptr, align 8
  store ptr %0, ptr %3, align 8, !tbaa !5343
  call void @llvm.dbg.declare(metadata ptr %3, metadata !5951, metadata !DIExpression()), !dbg !5952
  %4 = load ptr, ptr %3, align 8
  %5 = call noalias noundef nonnull ptr @_Znwm(i64 noundef 1) #29, !dbg !5953, !heapallocsite !1126
  call void @llvm.memset.p0.i64(ptr align 1 %5, i8 0, i64 1, i1 false), !dbg !5954
  call void @_ZN2spI13EncodedBufferEC2EPS0_(ptr noundef nonnull align 8 dereferenceable(8) %2, ptr noundef %5), !dbg !5955
  %6 = getelementptr inbounds %class.sp, ptr %2, i32 0, i32 0, !dbg !5956
  %7 = load ptr, ptr %6, align 8, !dbg !5956
  ret ptr %7, !dbg !5956
}

; Function Attrs: mustprogress nounwind uwtable
define linkonce_odr dso_local noundef ptr @_ZNK2spI13EncodedBufferEptEv(ptr noundef nonnull align 8 dereferenceable(8) %0) #10 comdat align 2 !dbg !5957 {
  %2 = alloca ptr, align 8
  store ptr %0, ptr %2, align 8, !tbaa !5343
  call void @llvm.dbg.declare(metadata ptr %2, metadata !5959, metadata !DIExpression()), !dbg !5961
  %3 = load ptr, ptr %2, align 8
  %4 = getelementptr inbounds %class.sp, ptr %3, i32 0, i32 0, !dbg !5962
  %5 = load ptr, ptr %4, align 8, !dbg !5962, !tbaa !5963
  ret ptr %5, !dbg !5965
}

; Function Attrs: mustprogress nounwind uwtable
define linkonce_odr dso_local void @_ZN13EncodedBuffer11writeHeaderEjj(ptr noundef nonnull align 1 dereferenceable(1) %0, i32 noundef %1, i32 noundef %2) #10 comdat align 2 !dbg !5966 {
  %4 = alloca ptr, align 8
  %5 = alloca i32, align 4
  %6 = alloca i32, align 4
  store ptr %0, ptr %4, align 8, !tbaa !5343
  call void @llvm.dbg.declare(metadata ptr %4, metadata !5968, metadata !DIExpression()), !dbg !5971
  store i32 %1, ptr %5, align 4, !tbaa !5348
  call void @llvm.dbg.declare(metadata ptr %5, metadata !5969, metadata !DIExpression()), !dbg !5972
  store i32 %2, ptr %6, align 4, !tbaa !5348
  call void @llvm.dbg.declare(metadata ptr %6, metadata !5970, metadata !DIExpression()), !dbg !5973
  %7 = load ptr, ptr %4, align 8
  ret void, !dbg !5974
}

; Function Attrs: nounwind willreturn memory(read)
declare !dbg !5975 i64 @strlen(ptr noundef) #14

; Function Attrs: mustprogress nounwind uwtable
define linkonce_odr dso_local void @_ZN13EncodedBuffer16writeRawVarint32Ej(ptr noundef nonnull align 1 dereferenceable(1) %0, i32 noundef %1) #10 comdat align 2 !dbg !5976 {
  %3 = alloca ptr, align 8
  %4 = alloca i32, align 4
  store ptr %0, ptr %3, align 8, !tbaa !5343
  call void @llvm.dbg.declare(metadata ptr %3, metadata !5978, metadata !DIExpression()), !dbg !5980
  store i32 %1, ptr %4, align 4, !tbaa !5348
  call void @llvm.dbg.declare(metadata ptr %4, metadata !5979, metadata !DIExpression()), !dbg !5981
  %5 = load ptr, ptr %3, align 8
  ret void, !dbg !5982
}

; Function Attrs: mustprogress nounwind uwtable
define linkonce_odr dso_local void @_ZN13EncodedBuffer12writeRawByteEh(ptr noundef nonnull align 1 dereferenceable(1) %0, i8 noundef zeroext %1) #10 comdat align 2 !dbg !5983 {
  %3 = alloca ptr, align 8
  %4 = alloca i8, align 1
  store ptr %0, ptr %3, align 8, !tbaa !5343
  call void @llvm.dbg.declare(metadata ptr %3, metadata !5985, metadata !DIExpression()), !dbg !5987
  store i8 %1, ptr %4, align 1, !tbaa !5854
  call void @llvm.dbg.declare(metadata ptr %4, metadata !5986, metadata !DIExpression()), !dbg !5988
  %5 = load ptr, ptr %3, align 8
  ret void, !dbg !5989
}

; Function Attrs: mustprogress nounwind uwtable
define linkonce_odr dso_local noundef ptr @_ZN13EncodedBuffer2wpEv(ptr noundef nonnull align 1 dereferenceable(1) %0) #10 comdat align 2 !dbg !5990 {
  %2 = alloca ptr, align 8
  store ptr %0, ptr %2, align 8, !tbaa !5343
  call void @llvm.dbg.declare(metadata ptr %2, metadata !5992, metadata !DIExpression()), !dbg !5993
  %3 = load ptr, ptr %2, align 8
  %4 = getelementptr inbounds %class.EncodedBuffer, ptr %3, i32 0, i32 0, !dbg !5994
  ret ptr %4, !dbg !5995
}

; Function Attrs: mustprogress nounwind uwtable
define linkonce_odr dso_local noundef i64 @_ZNK13EncodedBuffer16EditablePosition3posEv(ptr noundef nonnull align 1 dereferenceable(1) %0) #10 comdat align 2 !dbg !5996 {
  %2 = alloca ptr, align 8
  store ptr %0, ptr %2, align 8, !tbaa !5343
  call void @llvm.dbg.declare(metadata ptr %2, metadata !5998, metadata !DIExpression()), !dbg !6000
  %3 = load ptr, ptr %2, align 8
  ret i64 0, !dbg !6001
}

; Function Attrs: mustprogress nounwind uwtable
define linkonce_odr dso_local void @_ZN13EncodedBuffer16EditablePosition4moveEm(ptr noundef nonnull align 1 dereferenceable(1) %0, i64 noundef %1) #10 comdat align 2 !dbg !6002 {
  %3 = alloca ptr, align 8
  %4 = alloca i64, align 8
  store ptr %0, ptr %3, align 8, !tbaa !5343
  call void @llvm.dbg.declare(metadata ptr %3, metadata !6004, metadata !DIExpression()), !dbg !6006
  store i64 %1, ptr %4, align 8, !tbaa !5352
  call void @llvm.dbg.declare(metadata ptr %4, metadata !6005, metadata !DIExpression()), !dbg !6007
  %5 = load ptr, ptr %3, align 8
  ret void, !dbg !6008
}

; Function Attrs: mustprogress nounwind uwtable
define linkonce_odr dso_local noundef i64 @_ZNK8FdBuffer4sizeEv(ptr noundef nonnull align 1 dereferenceable(1) %0) #10 comdat align 2 !dbg !6009 {
  %2 = alloca ptr, align 8
  store ptr %0, ptr %2, align 8, !tbaa !5343
  call void @llvm.dbg.declare(metadata ptr %2, metadata !6011, metadata !DIExpression()), !dbg !6012
  %3 = load ptr, ptr %2, align 8
  ret i64 0, !dbg !6013
}

; Function Attrs: mustprogress nounwind uwtable
define linkonce_odr dso_local noundef ptr @_ZN13EncodedBuffer16EditablePosition6rewindEv(ptr noundef nonnull align 1 dereferenceable(1) %0) #10 comdat align 2 !dbg !6014 {
  %2 = alloca ptr, align 8
  store ptr %0, ptr %2, align 8, !tbaa !5343
  call void @llvm.dbg.declare(metadata ptr %2, metadata !6016, metadata !DIExpression()), !dbg !6017
  %3 = load ptr, ptr %2, align 8
  ret ptr %3, !dbg !6018
}

; Function Attrs: mustprogress nounwind uwtable
define linkonce_odr dso_local void @_ZN13EncodedBuffer4copyEmm(ptr noundef nonnull align 1 dereferenceable(1) %0, i64 noundef %1, i64 noundef %2) #10 comdat align 2 !dbg !6019 {
  %4 = alloca ptr, align 8
  %5 = alloca i64, align 8
  %6 = alloca i64, align 8
  store ptr %0, ptr %4, align 8, !tbaa !5343
  call void @llvm.dbg.declare(metadata ptr %4, metadata !6021, metadata !DIExpression()), !dbg !6024
  store i64 %1, ptr %5, align 8, !tbaa !5352
  call void @llvm.dbg.declare(metadata ptr %5, metadata !6022, metadata !DIExpression()), !dbg !6025
  store i64 %2, ptr %6, align 8, !tbaa !5352
  call void @llvm.dbg.declare(metadata ptr %6, metadata !6023, metadata !DIExpression()), !dbg !6026
  %7 = load ptr, ptr %4, align 8
  ret void, !dbg !6027
}

; Function Attrs: uwtable
define dso_local void @_ZN16WorkerThreadDataC2EPK19WorkerThreadSection(ptr noundef nonnull align 8 dereferenceable(88) %0, ptr noundef %1) unnamed_addr #0 align 2 personality ptr @__gxx_personality_v0 !dbg !6028 {
  %3 = alloca ptr, align 8
  %4 = alloca ptr, align 8
  %5 = alloca ptr, align 8
  %6 = alloca i32, align 4
  store ptr %0, ptr %3, align 8, !tbaa !5343
  call void @llvm.dbg.declare(metadata ptr %3, metadata !6030, metadata !DIExpression()), !dbg !6032
  store ptr %1, ptr %4, align 8, !tbaa !5343
  call void @llvm.dbg.declare(metadata ptr %4, metadata !6031, metadata !DIExpression()), !dbg !6033
  %7 = load ptr, ptr %3, align 8
  %8 = getelementptr inbounds i8, ptr %7, i64 8, !dbg !6034
  call void @_ZNSt23enable_shared_from_thisI16WorkerThreadDataEC2Ev(ptr noundef nonnull align 8 dereferenceable(16) %8) #16, !dbg !6035
  store ptr getelementptr inbounds ({ [4 x ptr] }, ptr @_ZTV16WorkerThreadData, i32 0, inrange i32 0, i32 2), ptr %7, align 8, !dbg !6034, !tbaa !5359
  %9 = getelementptr inbounds %struct.WorkerThreadData, ptr %7, i32 0, i32 2, !dbg !6036
  %10 = load ptr, ptr %4, align 8, !dbg !6037, !tbaa !5343
  store ptr %10, ptr %9, align 8, !dbg !6036, !tbaa !6038
  %11 = getelementptr inbounds %struct.WorkerThreadData, ptr %7, i32 0, i32 3, !dbg !6035
  invoke void @_ZN5FpipeC2Ev(ptr noundef nonnull align 4 dereferenceable(8) %11)
          to label %12 unwind label %16, !dbg !6035

12:                                               ; preds = %2
  %13 = getelementptr inbounds %struct.WorkerThreadData, ptr %7, i32 0, i32 4, !dbg !6035
  call void @_ZNSt5mutexC2Ev(ptr noundef nonnull align 8 dereferenceable(40) %13) #16, !dbg !6035
  %14 = getelementptr inbounds %struct.WorkerThreadData, ptr %7, i32 0, i32 5, !dbg !6047
  store i8 0, ptr %14, align 8, !dbg !6047, !tbaa !6048
  %15 = getelementptr inbounds %struct.WorkerThreadData, ptr %7, i32 0, i32 6, !dbg !6049
  store i32 0, ptr %15, align 4, !dbg !6049, !tbaa !6050
  ret void, !dbg !6051

16:                                               ; preds = %2
  %17 = landingpad { ptr, i32 }
          cleanup, !dbg !6051
  %18 = extractvalue { ptr, i32 } %17, 0, !dbg !6051
  store ptr %18, ptr %5, align 8, !dbg !6051
  %19 = extractvalue { ptr, i32 } %17, 1, !dbg !6051
  store i32 %19, ptr %6, align 4, !dbg !6051
  %20 = getelementptr inbounds i8, ptr %7, i64 8, !dbg !6052
  call void @_ZNSt23enable_shared_from_thisI16WorkerThreadDataED2Ev(ptr noundef nonnull align 8 dereferenceable(16) %20) #16, !dbg !6052
  br label %21, !dbg !6052

21:                                               ; preds = %16
  %22 = load ptr, ptr %5, align 8, !dbg !6052
  %23 = load i32, ptr %6, align 4, !dbg !6052
  %24 = insertvalue { ptr, i32 } poison, ptr %22, 0, !dbg !6052
  %25 = insertvalue { ptr, i32 } %24, i32 %23, 1, !dbg !6052
  resume { ptr, i32 } %25, !dbg !6052
}

; Function Attrs: nounwind uwtable
define linkonce_odr dso_local void @_ZNSt23enable_shared_from_thisI16WorkerThreadDataEC2Ev(ptr noundef nonnull align 8 dereferenceable(16) %0) unnamed_addr #8 comdat align 2 !dbg !6054 {
  %2 = alloca ptr, align 8
  store ptr %0, ptr %2, align 8, !tbaa !5343
  call void @llvm.dbg.declare(metadata ptr %2, metadata !6056, metadata !DIExpression()), !dbg !6058
  %3 = load ptr, ptr %2, align 8
  %4 = getelementptr inbounds %"class.std::enable_shared_from_this", ptr %3, i32 0, i32 0, !dbg !6059
  call void @_ZNSt8weak_ptrI16WorkerThreadDataEC2Ev(ptr noundef nonnull align 8 dereferenceable(16) %4) #16, !dbg !6059
  ret void, !dbg !6060
}

; Function Attrs: nounwind uwtable
define linkonce_odr dso_local void @_ZNSt5mutexC2Ev(ptr noundef nonnull align 8 dereferenceable(40) %0) unnamed_addr #8 comdat align 2 !dbg !6061 {
  %2 = alloca ptr, align 8
  store ptr %0, ptr %2, align 8, !tbaa !5343
  call void @llvm.dbg.declare(metadata ptr %2, metadata !6063, metadata !DIExpression()), !dbg !6065
  %3 = load ptr, ptr %2, align 8
  call void @_ZNSt12__mutex_baseC2Ev(ptr noundef nonnull align 8 dereferenceable(40) %3) #16, !dbg !6066
  ret void, !dbg !6067
}

; Function Attrs: nounwind uwtable
define linkonce_odr dso_local void @_ZNSt23enable_shared_from_thisI16WorkerThreadDataED2Ev(ptr noundef nonnull align 8 dereferenceable(16) %0) unnamed_addr #8 comdat align 2 !dbg !6068 {
  %2 = alloca ptr, align 8
  store ptr %0, ptr %2, align 8, !tbaa !5343
  call void @llvm.dbg.declare(metadata ptr %2, metadata !6070, metadata !DIExpression()), !dbg !6071
  %3 = load ptr, ptr %2, align 8
  %4 = getelementptr inbounds %"class.std::enable_shared_from_this", ptr %3, i32 0, i32 0, !dbg !6072
  call void @_ZNSt10__weak_ptrI16WorkerThreadDataLN9__gnu_cxx12_Lock_policyE2EED2Ev(ptr noundef nonnull align 8 dereferenceable(16) %4) #16, !dbg !6072
  ret void, !dbg !6074
}

; Function Attrs: nounwind uwtable
define dso_local void @_ZN16WorkerThreadDataD2Ev(ptr noundef nonnull align 8 dereferenceable(88) %0) unnamed_addr #8 align 2 !dbg !6075 {
  %2 = alloca ptr, align 8
  store ptr %0, ptr %2, align 8, !tbaa !5343
  call void @llvm.dbg.declare(metadata ptr %2, metadata !6077, metadata !DIExpression()), !dbg !6078
  %3 = load ptr, ptr %2, align 8
  %4 = getelementptr inbounds i8, ptr %3, i64 8, !dbg !6079
  call void @_ZNSt23enable_shared_from_thisI16WorkerThreadDataED2Ev(ptr noundef nonnull align 8 dereferenceable(16) %4) #16, !dbg !6079
  ret void, !dbg !6081
}

; Function Attrs: nounwind uwtable
define dso_local void @_ZN16WorkerThreadDataD0Ev(ptr noundef nonnull align 8 dereferenceable(88) %0) unnamed_addr #8 align 2 !dbg !6082 {
  %2 = alloca ptr, align 8
  store ptr %0, ptr %2, align 8, !tbaa !5343
  call void @llvm.dbg.declare(metadata ptr %2, metadata !6084, metadata !DIExpression()), !dbg !6085
  %3 = load ptr, ptr %2, align 8
  call void @_ZN16WorkerThreadDataD1Ev(ptr noundef nonnull align 8 dereferenceable(88) %3) #16, !dbg !6086
  call void @_ZdlPv(ptr noundef %3) #27, !dbg !6086
  ret void, !dbg !6087
}

; Function Attrs: uwtable
define dso_local void @_ZN19WorkerThreadSectionC2Eil(ptr noundef nonnull align 8 dereferenceable(56) %0, i32 noundef %1, i64 noundef %2) unnamed_addr #0 align 2 !dbg !6088 {
  %4 = alloca ptr, align 8
  %5 = alloca i32, align 4
  %6 = alloca i64, align 8
  store ptr %0, ptr %4, align 8, !tbaa !5343
  call void @llvm.dbg.declare(metadata ptr %4, metadata !6090, metadata !DIExpression()), !dbg !6094
  store i32 %1, ptr %5, align 4, !tbaa !5348
  call void @llvm.dbg.declare(metadata ptr %5, metadata !6092, metadata !DIExpression()), !dbg !6095
  store i64 %2, ptr %6, align 8, !tbaa !5352
  call void @llvm.dbg.declare(metadata ptr %6, metadata !6093, metadata !DIExpression()), !dbg !6096
  %7 = load ptr, ptr %4, align 8
  %8 = load i32, ptr %5, align 4, !dbg !6097, !tbaa !5348
  %9 = load i64, ptr %6, align 8, !dbg !6098, !tbaa !5352
  call void @_ZN7SectionC2Eil(ptr noundef nonnull align 8 dereferenceable(56) %7, i32 noundef %8, i64 noundef %9), !dbg !6099
  store ptr getelementptr inbounds ({ [6 x ptr] }, ptr @_ZTV19WorkerThreadSection, i32 0, inrange i32 0, i32 2), ptr %7, align 8, !dbg !6100, !tbaa !5359
  ret void, !dbg !6101
}

; Function Attrs: nounwind uwtable
define dso_local void @_ZN19WorkerThreadSectionD2Ev(ptr noundef nonnull align 8 dereferenceable(56) %0) unnamed_addr #8 align 2 !dbg !6102 {
  %2 = alloca ptr, align 8
  store ptr %0, ptr %2, align 8, !tbaa !5343
  call void @llvm.dbg.declare(metadata ptr %2, metadata !6104, metadata !DIExpression()), !dbg !6105
  %3 = load ptr, ptr %2, align 8
  call void @_ZN7SectionD2Ev(ptr noundef nonnull align 8 dereferenceable(56) %3) #16, !dbg !6106
  ret void, !dbg !6108
}

; Function Attrs: nounwind uwtable
define dso_local void @_ZN19WorkerThreadSectionD0Ev(ptr noundef nonnull align 8 dereferenceable(56) %0) unnamed_addr #8 align 2 !dbg !6109 {
  %2 = alloca ptr, align 8
  store ptr %0, ptr %2, align 8, !tbaa !5343
  call void @llvm.dbg.declare(metadata ptr %2, metadata !6111, metadata !DIExpression()), !dbg !6112
  %3 = load ptr, ptr %2, align 8
  call void @_ZN19WorkerThreadSectionD1Ev(ptr noundef nonnull align 8 dereferenceable(56) %3) #16, !dbg !6113
  call void @_ZdlPv(ptr noundef %3) #27, !dbg !6113
  ret void, !dbg !6114
}

; Function Attrs: mustprogress nounwind uwtable
define dso_local void @_Z15sigpipe_handleri(i32 noundef %0) #10 !dbg !6115 {
  %2 = alloca i32, align 4
  store i32 %0, ptr %2, align 4, !tbaa !5348
  call void @llvm.dbg.declare(metadata ptr %2, metadata !6117, metadata !DIExpression()), !dbg !6118
  %3 = load i32, ptr %2, align 4, !dbg !6119, !tbaa !5348
  %4 = icmp eq i32 %3, 13, !dbg !6121
  br i1 %4, label %5, label %6, !dbg !6122

5:                                                ; preds = %1
  br label %7, !dbg !6123

6:                                                ; preds = %1
  br label %7

7:                                                ; preds = %6, %5
  ret void, !dbg !6125
}

; Function Attrs: mustprogress uwtable
define dso_local noundef ptr @_Z22worker_thread_functionPv(ptr noundef %0) #5 personality ptr @__gxx_personality_v0 !dbg !6126 {
  %2 = alloca ptr, align 8
  %3 = alloca ptr, align 8
  %4 = alloca i32, align 4
  %5 = alloca %"class.std::unique_lock", align 8
  %6 = alloca ptr, align 8
  %7 = alloca i32, align 4
  store ptr %0, ptr %2, align 8, !tbaa !5343
  call void @llvm.dbg.declare(metadata ptr %2, metadata !6130, metadata !DIExpression()), !dbg !6135
  call void @llvm.lifetime.start.p0(i64 8, ptr %3) #16, !dbg !6136
  call void @llvm.dbg.declare(metadata ptr %3, metadata !6131, metadata !DIExpression()), !dbg !6137
  %8 = load ptr, ptr %2, align 8, !dbg !6138, !tbaa !5343
  store ptr %8, ptr %3, align 8, !dbg !6137, !tbaa !5343
  %9 = call ptr @signal(i32 noundef 13, ptr noundef @_Z15sigpipe_handleri) #16, !dbg !6139
  call void @llvm.lifetime.start.p0(i64 4, ptr %4) #16, !dbg !6140
  call void @llvm.dbg.declare(metadata ptr %4, metadata !6132, metadata !DIExpression()), !dbg !6141
  %10 = load ptr, ptr %3, align 8, !dbg !6142, !tbaa !5343
  %11 = getelementptr inbounds %struct.WorkerThreadData, ptr %10, i32 0, i32 2, !dbg !6143
  %12 = load ptr, ptr %11, align 8, !dbg !6143, !tbaa !6038
  %13 = load ptr, ptr %3, align 8, !dbg !6144, !tbaa !5343
  %14 = getelementptr inbounds %struct.WorkerThreadData, ptr %13, i32 0, i32 3, !dbg !6145
  %15 = call noundef nonnull align 4 dereferenceable(4) ptr @_ZN5Fpipe7writeFdEv(ptr noundef nonnull align 4 dereferenceable(8) %14), !dbg !6146
  %16 = load ptr, ptr %12, align 8, !dbg !6147, !tbaa !5359
  %17 = getelementptr inbounds ptr, ptr %16, i64 3, !dbg !6147
  %18 = load ptr, ptr %17, align 8, !dbg !6147
  %19 = call noundef i32 %18(ptr noundef nonnull align 8 dereferenceable(56) %12, ptr noundef nonnull align 4 dereferenceable(4) %15), !dbg !6147
  store i32 %19, ptr %4, align 4, !dbg !6141, !tbaa !5348
  call void @llvm.lifetime.start.p0(i64 16, ptr %5) #16, !dbg !6148
  call void @llvm.dbg.declare(metadata ptr %5, metadata !6133, metadata !DIExpression()), !dbg !6149
  %20 = load ptr, ptr %3, align 8, !dbg !6150, !tbaa !5343
  %21 = getelementptr inbounds %struct.WorkerThreadData, ptr %20, i32 0, i32 4, !dbg !6151
  call void @_ZNSt11unique_lockISt5mutexEC2ERS0_(ptr noundef nonnull align 8 dereferenceable(9) %5, ptr noundef nonnull align 8 dereferenceable(40) %21), !dbg !6149
  %22 = load ptr, ptr %3, align 8, !dbg !6152, !tbaa !5343
  %23 = getelementptr inbounds %struct.WorkerThreadData, ptr %22, i32 0, i32 5, !dbg !6153
  store i8 1, ptr %23, align 8, !dbg !6154, !tbaa !6048
  %24 = load i32, ptr %4, align 4, !dbg !6155, !tbaa !5348
  %25 = load ptr, ptr %3, align 8, !dbg !6156, !tbaa !5343
  %26 = getelementptr inbounds %struct.WorkerThreadData, ptr %25, i32 0, i32 6, !dbg !6157
  store i32 %24, ptr %26, align 4, !dbg !6158, !tbaa !6050
  %27 = load ptr, ptr %3, align 8, !dbg !6159, !tbaa !5343
  %28 = getelementptr inbounds %struct.WorkerThreadData, ptr %27, i32 0, i32 3, !dbg !6160
  %29 = invoke noundef nonnull align 4 dereferenceable(4) ptr @_ZN5Fpipe7writeFdEv(ptr noundef nonnull align 4 dereferenceable(8) %28)
          to label %30 unwind label %32, !dbg !6161

30:                                               ; preds = %1
  invoke void @_ZN9unique_fd5resetEi(ptr noundef nonnull align 4 dereferenceable(4) %29, i32 noundef -1)
          to label %31 unwind label %32, !dbg !6162

31:                                               ; preds = %30
  call void @_ZNSt11unique_lockISt5mutexED2Ev(ptr noundef nonnull align 8 dereferenceable(9) %5) #16, !dbg !6163
  call void @llvm.lifetime.end.p0(i64 16, ptr %5) #16, !dbg !6163
  call void @llvm.lifetime.end.p0(i64 4, ptr %4) #16, !dbg !6164
  call void @llvm.lifetime.end.p0(i64 8, ptr %3) #16, !dbg !6164
  ret ptr null, !dbg !6165

32:                                               ; preds = %30, %1
  %33 = landingpad { ptr, i32 }
          cleanup, !dbg !6166
  %34 = extractvalue { ptr, i32 } %33, 0, !dbg !6166
  store ptr %34, ptr %6, align 8, !dbg !6166
  %35 = extractvalue { ptr, i32 } %33, 1, !dbg !6166
  store i32 %35, ptr %7, align 4, !dbg !6166
  call void @_ZNSt11unique_lockISt5mutexED2Ev(ptr noundef nonnull align 8 dereferenceable(9) %5) #16, !dbg !6163
  call void @llvm.lifetime.end.p0(i64 16, ptr %5) #16, !dbg !6163
  call void @llvm.lifetime.end.p0(i64 4, ptr %4) #16, !dbg !6164
  call void @llvm.lifetime.end.p0(i64 8, ptr %3) #16, !dbg !6164
  br label %36, !dbg !6164

36:                                               ; preds = %32
  %37 = load ptr, ptr %6, align 8, !dbg !6164
  %38 = load i32, ptr %7, align 4, !dbg !6164
  %39 = insertvalue { ptr, i32 } poison, ptr %37, 0, !dbg !6164
  %40 = insertvalue { ptr, i32 } %39, i32 %38, 1, !dbg !6164
  resume { ptr, i32 } %40, !dbg !6164
}

; Function Attrs: nounwind
declare !dbg !6167 ptr @signal(i32 noundef, ptr noundef) #7

; Function Attrs: uwtable
define linkonce_odr dso_local void @_ZNSt11unique_lockISt5mutexEC2ERS0_(ptr noundef nonnull align 8 dereferenceable(9) %0, ptr noundef nonnull align 8 dereferenceable(40) %1) unnamed_addr #0 comdat align 2 !dbg !6173 {
  %3 = alloca ptr, align 8
  %4 = alloca ptr, align 8
  store ptr %0, ptr %3, align 8, !tbaa !5343
  call void @llvm.dbg.declare(metadata ptr %3, metadata !6175, metadata !DIExpression()), !dbg !6178
  store ptr %1, ptr %4, align 8, !tbaa !5343
  call void @llvm.dbg.declare(metadata ptr %4, metadata !6177, metadata !DIExpression()), !dbg !6179
  %5 = load ptr, ptr %3, align 8
  %6 = getelementptr inbounds %"class.std::unique_lock", ptr %5, i32 0, i32 0, !dbg !6180
  %7 = load ptr, ptr %4, align 8, !dbg !6181, !tbaa !5343
  store ptr %7, ptr %6, align 8, !dbg !6180, !tbaa !6182
  %8 = getelementptr inbounds %"class.std::unique_lock", ptr %5, i32 0, i32 1, !dbg !6184
  store i8 0, ptr %8, align 8, !dbg !6184, !tbaa !6185
  call void @_ZNSt11unique_lockISt5mutexE4lockEv(ptr noundef nonnull align 8 dereferenceable(9) %5), !dbg !6186
  %9 = getelementptr inbounds %"class.std::unique_lock", ptr %5, i32 0, i32 1, !dbg !6188
  store i8 1, ptr %9, align 8, !dbg !6189, !tbaa !6185
  ret void, !dbg !6190
}

; Function Attrs: nounwind uwtable
define linkonce_odr dso_local void @_ZNSt11unique_lockISt5mutexED2Ev(ptr noundef nonnull align 8 dereferenceable(9) %0) unnamed_addr #8 comdat align 2 personality ptr @__gxx_personality_v0 !dbg !6191 {
  %2 = alloca ptr, align 8
  store ptr %0, ptr %2, align 8, !tbaa !5343
  call void @llvm.dbg.declare(metadata ptr %2, metadata !6193, metadata !DIExpression()), !dbg !6194
  %3 = load ptr, ptr %2, align 8
  %4 = getelementptr inbounds %"class.std::unique_lock", ptr %3, i32 0, i32 1, !dbg !6195
  %5 = load i8, ptr %4, align 8, !dbg !6195, !tbaa !6185, !range !5511, !noundef !171
  %6 = trunc i8 %5 to i1, !dbg !6195
  br i1 %6, label %7, label %9, !dbg !6198

7:                                                ; preds = %1
  invoke void @_ZNSt11unique_lockISt5mutexE6unlockEv(ptr noundef nonnull align 8 dereferenceable(9) %3)
          to label %8 unwind label %10, !dbg !6199

8:                                                ; preds = %7
  br label %9, !dbg !6199

9:                                                ; preds = %8, %1
  ret void, !dbg !6200

10:                                               ; preds = %7
  %11 = landingpad { ptr, i32 }
          catch ptr null, !dbg !6199
  %12 = extractvalue { ptr, i32 } %11, 0, !dbg !6199
  call void @__clang_call_terminate(ptr %12) #30, !dbg !6199
  unreachable, !dbg !6199
}

; Function Attrs: mustprogress uwtable
define dso_local noundef i32 @_ZNK19WorkerThreadSection7ExecuteEP12ReportWriter(ptr noundef nonnull align 8 dereferenceable(56) %0, ptr noundef %1) unnamed_addr #5 align 2 !dbg !6201 {
  %3 = alloca ptr, align 8
  %4 = alloca ptr, align 8
  %5 = alloca i32, align 4
  %6 = alloca i8, align 1
  %7 = alloca %class.FdBuffer, align 1
  %8 = alloca %struct.WorkerThreadData, align 8
  %9 = alloca i64, align 8
  %10 = alloca i32, align 4
  store ptr %0, ptr %3, align 8, !tbaa !5343
  call void @llvm.dbg.declare(metadata ptr %3, metadata !6203, metadata !DIExpression()), !dbg !6211
  store ptr %1, ptr %4, align 8, !tbaa !5343
  call void @llvm.dbg.declare(metadata ptr %4, metadata !6204, metadata !DIExpression()), !dbg !6212
  %11 = load ptr, ptr %3, align 8
  call void @llvm.lifetime.start.p0(i64 4, ptr %5) #16, !dbg !6213
  call void @llvm.dbg.declare(metadata ptr %5, metadata !6205, metadata !DIExpression()), !dbg !6214
  store i32 0, ptr %5, align 4, !dbg !6214, !tbaa !5348
  call void @llvm.lifetime.start.p0(i64 1, ptr %6) #16, !dbg !6215
  call void @llvm.dbg.declare(metadata ptr %6, metadata !6206, metadata !DIExpression()), !dbg !6216
  store i8 0, ptr %6, align 1, !dbg !6216, !tbaa !5617
  call void @llvm.lifetime.start.p0(i64 1, ptr %7) #16, !dbg !6217
  call void @llvm.dbg.declare(metadata ptr %7, metadata !6207, metadata !DIExpression()), !dbg !6218
  call void @llvm.lifetime.start.p0(i64 88, ptr %8) #16, !dbg !6219
  call void @llvm.dbg.declare(metadata ptr %8, metadata !6208, metadata !DIExpression()), !dbg !6220
  call void @_ZN16WorkerThreadDataC1EPK19WorkerThreadSection(ptr noundef nonnull align 8 dereferenceable(88) %8, ptr noundef %11), !dbg !6220
  call void @llvm.lifetime.start.p0(i64 8, ptr %9) #16, !dbg !6221
  call void @llvm.dbg.declare(metadata ptr %9, metadata !6209, metadata !DIExpression()), !dbg !6222
  call void @llvm.lifetime.start.p0(i64 4, ptr %10) #16, !dbg !6223
  call void @llvm.dbg.declare(metadata ptr %10, metadata !6210, metadata !DIExpression()), !dbg !6224
  %12 = call i32 @pthread_create(ptr noundef %9, ptr noundef null, ptr noundef @_Z22worker_thread_functionPv, ptr noundef %8) #16, !dbg !6225
  store i32 %12, ptr %10, align 4, !dbg !6224, !tbaa !5348
  %13 = load i32, ptr %10, align 4, !dbg !6226, !tbaa !5348
  %14 = icmp ne i32 %13, 0, !dbg !6228
  br i1 %14, label %15, label %18, !dbg !6229

15:                                               ; preds = %2
  %16 = load i32, ptr %10, align 4, !dbg !6230, !tbaa !5348
  %17 = sub nsw i32 0, %16, !dbg !6232
  call void @llvm.lifetime.end.p0(i64 4, ptr %10) #16, !dbg !6233
  call void @llvm.lifetime.end.p0(i64 8, ptr %9) #16, !dbg !6233
  call void @_ZN16WorkerThreadDataD1Ev(ptr noundef nonnull align 8 dereferenceable(88) %8) #16, !dbg !6233
  call void @llvm.lifetime.end.p0(i64 88, ptr %8) #16, !dbg !6233
  call void @llvm.lifetime.end.p0(i64 1, ptr %7) #16, !dbg !6233
  call void @llvm.lifetime.end.p0(i64 1, ptr %6) #16, !dbg !6233
  call void @llvm.lifetime.end.p0(i64 4, ptr %5) #16, !dbg !6233
  ret i32 %17, !dbg !6233

18:                                               ; preds = %2
  %19 = load i64, ptr %9, align 8, !dbg !6234, !tbaa !5352
  %20 = call i32 @pthread_detach(i64 noundef %19) #16, !dbg !6235
  unreachable, !dbg !6235
}

; Function Attrs: nounwind
declare !dbg !6236 i32 @pthread_create(ptr noundef, ptr noundef, ptr noundef, ptr noundef) #7

; Function Attrs: nounwind
declare !dbg !6247 i32 @pthread_detach(i64 noundef) #7

; Function Attrs: uwtable
define dso_local void @_ZN18TextDumpsysSectionC2EiPKcz(ptr noundef nonnull align 8 dereferenceable(65) %0, i32 noundef %1, ptr noundef %2, ...) unnamed_addr #0 align 2 personality ptr @__gxx_personality_v0 !dbg !6250 {
  %4 = alloca ptr, align 8
  %5 = alloca i32, align 4
  %6 = alloca ptr, align 8
  %7 = alloca %class.String8, align 8
  %8 = alloca ptr, align 8
  %9 = alloca i32, align 4
  %10 = alloca [1 x %struct.__va_list_tag], align 16
  %11 = alloca ptr, align 8
  %12 = alloca i32, align 4
  %13 = alloca %class.String16, align 1
  store ptr %0, ptr %4, align 8, !tbaa !5343
  call void @llvm.dbg.declare(metadata ptr %4, metadata !6256, metadata !DIExpression()), !dbg !6264
  store i32 %1, ptr %5, align 4, !tbaa !5348
  call void @llvm.dbg.declare(metadata ptr %5, metadata !6258, metadata !DIExpression()), !dbg !6265
  store ptr %2, ptr %6, align 8, !tbaa !5343
  call void @llvm.dbg.declare(metadata ptr %6, metadata !6259, metadata !DIExpression()), !dbg !6266
  %14 = load ptr, ptr %4, align 8
  %15 = load i32, ptr %5, align 4, !dbg !6267, !tbaa !5348
  call void @_ZN19WorkerThreadSectionC2Eil(ptr noundef nonnull align 8 dereferenceable(56) %14, i32 noundef %15, i64 noundef 3000), !dbg !6268
  store ptr getelementptr inbounds ({ [6 x ptr] }, ptr @_ZTV18TextDumpsysSection, i32 0, inrange i32 0, i32 2), ptr %14, align 8, !dbg !6269, !tbaa !5359
  %16 = getelementptr inbounds %class.TextDumpsysSection, ptr %14, i32 0, i32 1, !dbg !6270
  %17 = load ptr, ptr %6, align 8, !dbg !6271, !tbaa !5343
  store ptr %17, ptr %16, align 8, !dbg !6270, !tbaa !6272
  %18 = getelementptr inbounds %class.TextDumpsysSection, ptr %14, i32 0, i32 2, !dbg !6276
  call void @llvm.lifetime.start.p0(i64 32, ptr %7) #16, !dbg !6277
  invoke void @_ZN7String8C2EPKc(ptr noundef nonnull align 8 dereferenceable(32) %7, ptr noundef @.str.4)
          to label %19 unwind label %32, !dbg !6277

19:                                               ; preds = %3
  %20 = getelementptr inbounds %class.Section, ptr %14, i32 0, i32 3, !dbg !6278
  %21 = call noundef nonnull align 8 dereferenceable(32) ptr @_ZN7String8aSEOS_(ptr noundef nonnull align 8 dereferenceable(32) %20, ptr noundef nonnull align 8 dereferenceable(32) %7) #16, !dbg !6279
  call void @_ZN7String8D2Ev(ptr noundef nonnull align 8 dereferenceable(32) %7) #16, !dbg !6278
  call void @llvm.lifetime.end.p0(i64 32, ptr %7) #16, !dbg !6278
  %22 = load ptr, ptr %6, align 8, !dbg !6280, !tbaa !5343
  %23 = getelementptr inbounds %class.Section, ptr %14, i32 0, i32 3, !dbg !6281
  %24 = invoke noundef nonnull align 8 dereferenceable(32) ptr @_ZN7String8pLEPKc(ptr noundef nonnull align 8 dereferenceable(32) %23, ptr noundef %22)
          to label %25 unwind label %36, !dbg !6282

25:                                               ; preds = %19
  call void @llvm.lifetime.start.p0(i64 24, ptr %10) #16, !dbg !6283
  call void @llvm.dbg.declare(metadata ptr %10, metadata !6260, metadata !DIExpression()), !dbg !6284
  %26 = getelementptr inbounds [1 x %struct.__va_list_tag], ptr %10, i64 0, i64 0, !dbg !6285
  call void @llvm.va_start(ptr %26), !dbg !6285
  br label %27, !dbg !6286

27:                                               ; preds = %54, %25
  br label %28, !dbg !6286

28:                                               ; preds = %27
  call void @llvm.lifetime.start.p0(i64 8, ptr %11) #16, !dbg !6287
  call void @llvm.dbg.declare(metadata ptr %11, metadata !6262, metadata !DIExpression()), !dbg !6288
  %29 = load ptr, ptr %11, align 8, !dbg !6289, !tbaa !5343
  %30 = icmp eq ptr %29, null, !dbg !6291
  br i1 %30, label %31, label %40, !dbg !6292

31:                                               ; preds = %28
  store i32 3, ptr %12, align 4
  br label %52, !dbg !6293

32:                                               ; preds = %3
  %33 = landingpad { ptr, i32 }
          cleanup, !dbg !6295
  %34 = extractvalue { ptr, i32 } %33, 0, !dbg !6295
  store ptr %34, ptr %8, align 8, !dbg !6295
  %35 = extractvalue { ptr, i32 } %33, 1, !dbg !6295
  store i32 %35, ptr %9, align 4, !dbg !6295
  call void @llvm.lifetime.end.p0(i64 32, ptr %7) #16, !dbg !6278
  br label %65, !dbg !6278

36:                                               ; preds = %19
  %37 = landingpad { ptr, i32 }
          cleanup, !dbg !6295
  %38 = extractvalue { ptr, i32 } %37, 0, !dbg !6295
  store ptr %38, ptr %8, align 8, !dbg !6295
  %39 = extractvalue { ptr, i32 } %37, 1, !dbg !6295
  store i32 %39, ptr %9, align 4, !dbg !6295
  br label %65, !dbg !6295

40:                                               ; preds = %28
  %41 = getelementptr inbounds %class.TextDumpsysSection, ptr %14, i32 0, i32 2, !dbg !6296
  call void @llvm.lifetime.start.p0(i64 1, ptr %13) #16, !dbg !6297
  %42 = load ptr, ptr %11, align 8, !dbg !6298, !tbaa !5343
  invoke void @_ZN8String16C2EPKc(ptr noundef nonnull align 1 dereferenceable(1) %13, ptr noundef %42)
          to label %43 unwind label %55, !dbg !6297

43:                                               ; preds = %40
  invoke void @_ZN12String16List3addERK8String16(ptr noundef nonnull align 1 dereferenceable(1) %41, ptr noundef nonnull align 1 dereferenceable(1) %13)
          to label %44 unwind label %55, !dbg !6299

44:                                               ; preds = %43
  call void @llvm.lifetime.end.p0(i64 1, ptr %13) #16, !dbg !6296
  %45 = getelementptr inbounds %class.Section, ptr %14, i32 0, i32 3, !dbg !6300
  %46 = invoke noundef nonnull align 8 dereferenceable(32) ptr @_ZN7String8pLEPKc(ptr noundef nonnull align 8 dereferenceable(32) %45, ptr noundef @.str.3)
          to label %47 unwind label %59, !dbg !6301

47:                                               ; preds = %44
  %48 = load ptr, ptr %11, align 8, !dbg !6302, !tbaa !5343
  %49 = getelementptr inbounds %class.Section, ptr %14, i32 0, i32 3, !dbg !6303
  %50 = invoke noundef nonnull align 8 dereferenceable(32) ptr @_ZN7String8pLEPKc(ptr noundef nonnull align 8 dereferenceable(32) %49, ptr noundef %48)
          to label %51 unwind label %59, !dbg !6304

51:                                               ; preds = %47
  store i32 0, ptr %12, align 4, !dbg !6305
  br label %52, !dbg !6305

52:                                               ; preds = %51, %31
  call void @llvm.lifetime.end.p0(i64 8, ptr %11) #16, !dbg !6305
  %53 = load i32, ptr %12, align 4
  switch i32 %53, label %71 [
    i32 0, label %54
    i32 3, label %64
  ]

54:                                               ; preds = %52
  br label %27, !dbg !6286, !llvm.loop !6306

55:                                               ; preds = %43, %40
  %56 = landingpad { ptr, i32 }
          cleanup, !dbg !6307
  %57 = extractvalue { ptr, i32 } %56, 0, !dbg !6307
  store ptr %57, ptr %8, align 8, !dbg !6307
  %58 = extractvalue { ptr, i32 } %56, 1, !dbg !6307
  store i32 %58, ptr %9, align 4, !dbg !6307
  call void @llvm.lifetime.end.p0(i64 1, ptr %13) #16, !dbg !6296
  br label %63, !dbg !6296

59:                                               ; preds = %47, %44
  %60 = landingpad { ptr, i32 }
          cleanup, !dbg !6307
  %61 = extractvalue { ptr, i32 } %60, 0, !dbg !6307
  store ptr %61, ptr %8, align 8, !dbg !6307
  %62 = extractvalue { ptr, i32 } %60, 1, !dbg !6307
  store i32 %62, ptr %9, align 4, !dbg !6307
  br label %63, !dbg !6307

63:                                               ; preds = %59, %55
  call void @llvm.lifetime.end.p0(i64 8, ptr %11) #16, !dbg !6305
  call void @llvm.lifetime.end.p0(i64 24, ptr %10) #16, !dbg !6308
  br label %65, !dbg !6308

64:                                               ; preds = %52
  call void @llvm.lifetime.end.p0(i64 24, ptr %10) #16, !dbg !6308
  ret void, !dbg !6308

65:                                               ; preds = %63, %36, %32
  call void @_ZN19WorkerThreadSectionD2Ev(ptr noundef nonnull align 8 dereferenceable(56) %14) #16, !dbg !6295
  br label %66, !dbg !6295

66:                                               ; preds = %65
  %67 = load ptr, ptr %8, align 8, !dbg !6295
  %68 = load i32, ptr %9, align 4, !dbg !6295
  %69 = insertvalue { ptr, i32 } poison, ptr %67, 0, !dbg !6295
  %70 = insertvalue { ptr, i32 } %69, i32 %68, 1, !dbg !6295
  resume { ptr, i32 } %70, !dbg !6295

71:                                               ; preds = %52
  unreachable
}

; Function Attrs: mustprogress nounwind uwtable
define linkonce_odr dso_local void @_ZN12String16List3addERK8String16(ptr noundef nonnull align 1 dereferenceable(1) %0, ptr noundef nonnull align 1 dereferenceable(1) %1) #10 comdat align 2 !dbg !6309 {
  %3 = alloca ptr, align 8
  %4 = alloca ptr, align 8
  store ptr %0, ptr %3, align 8, !tbaa !5343
  call void @llvm.dbg.declare(metadata ptr %3, metadata !6311, metadata !DIExpression()), !dbg !6314
  store ptr %1, ptr %4, align 8, !tbaa !5343
  call void @llvm.dbg.declare(metadata ptr %4, metadata !6313, metadata !DIExpression()), !dbg !6315
  %5 = load ptr, ptr %3, align 8
  ret void, !dbg !6316
}

; Function Attrs: nounwind uwtable
define linkonce_odr dso_local void @_ZN8String16C2EPKc(ptr noundef nonnull align 1 dereferenceable(1) %0, ptr noundef %1) unnamed_addr #8 comdat align 2 !dbg !6317 {
  %3 = alloca ptr, align 8
  %4 = alloca ptr, align 8
  store ptr %0, ptr %3, align 8, !tbaa !5343
  call void @llvm.dbg.declare(metadata ptr %3, metadata !6319, metadata !DIExpression()), !dbg !6322
  store ptr %1, ptr %4, align 8, !tbaa !5343
  call void @llvm.dbg.declare(metadata ptr %4, metadata !6321, metadata !DIExpression()), !dbg !6323
  %5 = load ptr, ptr %3, align 8
  ret void, !dbg !6324
}

; Function Attrs: mustprogress uwtable
define dso_local noundef i32 @_ZNK18TextDumpsysSection12BlockingCallER9unique_fd(ptr noundef nonnull align 8 dereferenceable(65) %0, ptr noundef nonnull align 4 dereferenceable(4) %1) unnamed_addr #5 align 2 personality ptr @__gxx_personality_v0 !dbg !3002 {
  %3 = alloca i32, align 4
  %4 = alloca ptr, align 8
  %5 = alloca ptr, align 8
  %6 = alloca %class.sp.0, align 8
  %7 = alloca i32, align 4
  %8 = alloca %class.Fpipe, align 4
  %9 = alloca i64, align 8
  %10 = alloca %"class.std::thread", align 8
  %11 = alloca %class.anon, align 8
  %12 = alloca %"class.std::__cxx11::basic_string", align 8
  %13 = alloca i8, align 1
  %14 = alloca ptr, align 8
  %15 = alloca i32, align 4
  %16 = alloca %class.ProtoOutputStream, align 1
  %17 = alloca %"class.std::__cxx11::basic_string", align 8
  %18 = alloca %"class.std::allocator", align 1
  store ptr %0, ptr %4, align 8, !tbaa !5343
  call void @llvm.dbg.declare(metadata ptr %4, metadata !3010, metadata !DIExpression()), !dbg !6325
  store ptr %1, ptr %5, align 8, !tbaa !5343
  call void @llvm.dbg.declare(metadata ptr %5, metadata !3012, metadata !DIExpression()), !dbg !6326
  %19 = load ptr, ptr %4, align 8
  call void @llvm.lifetime.start.p0(i64 8, ptr %6) #16, !dbg !6327
  call void @llvm.dbg.declare(metadata ptr %6, metadata !3013, metadata !DIExpression()), !dbg !6328
  %20 = call noundef ptr @_Z21defaultServiceManagerv(), !dbg !6329
  %21 = getelementptr inbounds %class.TextDumpsysSection, ptr %19, i32 0, i32 1, !dbg !6330
  %22 = load ptr, ptr %21, align 8, !dbg !6330, !tbaa !6272
  %23 = call ptr @_ZN14ServiceManager12checkServiceEPKc(ptr noundef nonnull align 1 dereferenceable(1) %20, ptr noundef %22), !dbg !6331
  %24 = getelementptr inbounds %class.sp.0, ptr %6, i32 0, i32 0, !dbg !6331
  store ptr %23, ptr %24, align 8, !dbg !6331
  %25 = call noundef zeroext i1 @_ZNK2spI7IBinderEcvbEv(ptr noundef nonnull align 8 dereferenceable(8) %6), !dbg !6332
  %26 = zext i1 %25 to i64, !dbg !6332
  %27 = icmp eq i64 %26, 0, !dbg !6334
  br i1 %27, label %28, label %29, !dbg !6335

28:                                               ; preds = %2
  store i32 -1, ptr %3, align 4, !dbg !6336
  store i32 1, ptr %7, align 4
  br label %102, !dbg !6336

29:                                               ; preds = %2
  call void @llvm.lifetime.start.p0(i64 8, ptr %8) #16, !dbg !6338
  call void @llvm.dbg.declare(metadata ptr %8, metadata !3014, metadata !DIExpression()), !dbg !6339
  call void @_ZN5FpipeC2Ev(ptr noundef nonnull align 4 dereferenceable(8) %8), !dbg !6339
  %30 = call noundef zeroext i1 @_ZN5Fpipe4initEv(ptr noundef nonnull align 4 dereferenceable(8) %8), !dbg !6340
  br i1 %30, label %35, label %31, !dbg !6342

31:                                               ; preds = %29
  %32 = call ptr @__errno_location() #28, !dbg !6343
  %33 = load i32, ptr %32, align 4, !dbg !6343, !tbaa !5348
  %34 = sub nsw i32 0, %33, !dbg !6345
  store i32 %34, ptr %3, align 4, !dbg !6346
  store i32 1, ptr %7, align 4
  br label %101, !dbg !6346

35:                                               ; preds = %29
  call void @llvm.lifetime.start.p0(i64 8, ptr %9) #16, !dbg !6347
  call void @llvm.dbg.declare(metadata ptr %9, metadata !3015, metadata !DIExpression()), !dbg !6348
  %36 = call noundef i64 @_Z8Nanotimev(), !dbg !6349
  store i64 %36, ptr %9, align 8, !dbg !6348, !tbaa !5352
  call void @llvm.lifetime.start.p0(i64 8, ptr %10) #16, !dbg !6350
  call void @llvm.dbg.declare(metadata ptr %10, metadata !3019, metadata !DIExpression()), !dbg !6351
  call void @llvm.lifetime.start.p0(i64 24, ptr %11) #16, !dbg !6352
  %37 = getelementptr inbounds %class.anon, ptr %11, i32 0, i32 0, !dbg !6352
  store ptr %6, ptr %37, align 8, !dbg !6352, !tbaa !5343
  %38 = getelementptr inbounds %class.anon, ptr %11, i32 0, i32 1, !dbg !6352
  store ptr %8, ptr %38, align 8, !dbg !6352, !tbaa !5343
  %39 = getelementptr inbounds %class.anon, ptr %11, i32 0, i32 2, !dbg !6352
  store ptr %19, ptr %39, align 8, !dbg !6352, !tbaa !6353
  call void @"_ZNSt6threadC2IZNK18TextDumpsysSection12BlockingCallER9unique_fdE3$_0JEvEEOT_DpOT0_"(ptr noundef nonnull align 8 dereferenceable(8) %10, ptr noundef nonnull align 8 dereferenceable(24) %11), !dbg !6351
  call void @llvm.lifetime.end.p0(i64 24, ptr %11) #16, !dbg !6351
  call void @llvm.lifetime.start.p0(i64 32, ptr %12) #16, !dbg !6355
  call void @llvm.dbg.declare(metadata ptr %12, metadata !3020, metadata !DIExpression()), !dbg !6356
  call void @_ZNSt7__cxx1112basic_stringIcSt11char_traitsIcESaIcEEC2Ev(ptr noundef nonnull align 8 dereferenceable(32) %12) #16, !dbg !6356
  call void @llvm.lifetime.start.p0(i64 1, ptr %13) #16, !dbg !6357
  call void @llvm.dbg.declare(metadata ptr %13, metadata !3021, metadata !DIExpression()), !dbg !6358
  %40 = invoke noundef nonnull align 4 dereferenceable(4) ptr @_ZN5Fpipe6readFdEv(ptr noundef nonnull align 4 dereferenceable(8) %8)
          to label %41 unwind label %52, !dbg !6359

41:                                               ; preds = %35
  %42 = invoke noundef zeroext i1 @_Z14ReadFdToStringR9unique_fdPNSt7__cxx1112basic_stringIcSt11char_traitsIcESaIcEEE(ptr noundef nonnull align 4 dereferenceable(4) %40, ptr noundef %12)
          to label %43 unwind label %52, !dbg !6360

43:                                               ; preds = %41
  %44 = zext i1 %42 to i8, !dbg !6358
  store i8 %44, ptr %13, align 1, !dbg !6358, !tbaa !5617
  invoke void @_ZNSt6thread4joinEv(ptr noundef nonnull align 8 dereferenceable(8) %10)
          to label %45 unwind label %52, !dbg !6361

45:                                               ; preds = %43
  %46 = invoke noundef nonnull align 4 dereferenceable(4) ptr @_ZN5Fpipe6readFdEv(ptr noundef nonnull align 4 dereferenceable(8) %8)
          to label %47 unwind label %52, !dbg !6362

47:                                               ; preds = %45
  invoke void @_ZN9unique_fd5resetEi(ptr noundef nonnull align 4 dereferenceable(4) %46, i32 noundef -1)
          to label %48 unwind label %52, !dbg !6363

48:                                               ; preds = %47
  %49 = load i8, ptr %13, align 1, !dbg !6364, !tbaa !5617, !range !5511, !noundef !171
  %50 = trunc i8 %49 to i1, !dbg !6364
  br i1 %50, label %56, label %51, !dbg !6366

51:                                               ; preds = %48
  store i32 -1, ptr %3, align 4, !dbg !6367
  store i32 1, ptr %7, align 4
  br label %99, !dbg !6367

52:                                               ; preds = %47, %45, %43, %41, %35
  %53 = landingpad { ptr, i32 }
          cleanup, !dbg !6369
  %54 = extractvalue { ptr, i32 } %53, 0, !dbg !6369
  store ptr %54, ptr %14, align 8, !dbg !6369
  %55 = extractvalue { ptr, i32 } %53, 1, !dbg !6369
  store i32 %55, ptr %15, align 4, !dbg !6369
  br label %100, !dbg !6369

56:                                               ; preds = %48
  call void @llvm.lifetime.start.p0(i64 1, ptr %16) #16, !dbg !6370
  call void @llvm.dbg.declare(metadata ptr %16, metadata !3022, metadata !DIExpression()), !dbg !6371
  call void @llvm.lifetime.start.p0(i64 32, ptr %17) #16, !dbg !6372
  %57 = getelementptr inbounds %class.Section, ptr %19, i32 0, i32 3, !dbg !6373
  %58 = invoke noundef ptr @_ZNK7String86stringEv(ptr noundef nonnull align 8 dereferenceable(32) %57)
          to label %59 unwind label %78, !dbg !6374

59:                                               ; preds = %56
  call void @llvm.lifetime.start.p0(i64 1, ptr %18) #16, !dbg !6372
  call void @_ZNSaIcEC2Ev(ptr noundef nonnull align 1 dereferenceable(1) %18) #16, !dbg !6372
  invoke void @_ZNSt7__cxx1112basic_stringIcSt11char_traitsIcESaIcEEC2IS3_EEPKcRKS3_(ptr noundef nonnull align 8 dereferenceable(32) %17, ptr noundef %58, ptr noundef nonnull align 1 dereferenceable(1) %18)
          to label %60 unwind label %82, !dbg !6372

60:                                               ; preds = %59
  invoke void @_ZN17ProtoOutputStream5writeEjRKNSt7__cxx1112basic_stringIcSt11char_traitsIcESaIcEEE(ptr noundef nonnull align 1 dereferenceable(1) %16, i32 noundef 1, ptr noundef nonnull align 8 dereferenceable(32) %17)
          to label %61 unwind label %86, !dbg !6375

61:                                               ; preds = %60
  call void @_ZNSt7__cxx1112basic_stringIcSt11char_traitsIcESaIcEED2Ev(ptr noundef nonnull align 8 dereferenceable(32) %17) #16, !dbg !6376
  call void @_ZN9__gnu_cxx13new_allocatorIcED2Ev(ptr noundef nonnull align 1 dereferenceable(1) %18) #16, !dbg !6376
  call void @llvm.lifetime.end.p0(i64 1, ptr %18) #16, !dbg !6376
  call void @llvm.lifetime.end.p0(i64 32, ptr %17) #16, !dbg !6376
  invoke void @_ZN17ProtoOutputStream5writeEjRKNSt7__cxx1112basic_stringIcSt11char_traitsIcESaIcEEE(ptr noundef nonnull align 1 dereferenceable(1) %16, i32 noundef 2, ptr noundef nonnull align 8 dereferenceable(32) %12)
          to label %62 unwind label %92, !dbg !6377

62:                                               ; preds = %61
  %63 = invoke noundef i64 @_Z8Nanotimev()
          to label %64 unwind label %92, !dbg !6378

64:                                               ; preds = %62
  %65 = load i64, ptr %9, align 8, !dbg !6379, !tbaa !5352
  %66 = sub i64 %63, %65, !dbg !6380
  invoke void @_ZN17ProtoOutputStream5writeEjl(ptr noundef nonnull align 1 dereferenceable(1) %16, i32 noundef 3, i64 noundef %66)
          to label %67 unwind label %92, !dbg !6381

67:                                               ; preds = %64
  %68 = load ptr, ptr %5, align 8, !dbg !6382, !tbaa !5343
  %69 = invoke noundef i32 @_ZNK9unique_fd3getEv(ptr noundef nonnull align 4 dereferenceable(4) %68)
          to label %70 unwind label %92, !dbg !6384

70:                                               ; preds = %67
  %71 = invoke noundef zeroext i1 @_ZN17ProtoOutputStream5flushEi(ptr noundef nonnull align 1 dereferenceable(1) %16, i32 noundef %69)
          to label %72 unwind label %92, !dbg !6385

72:                                               ; preds = %70
  br i1 %71, label %96, label %73, !dbg !6386

73:                                               ; preds = %72
  %74 = call ptr @__errno_location() #28, !dbg !6387
  %75 = load i32, ptr %74, align 4, !dbg !6387, !tbaa !5348
  %76 = icmp eq i32 %75, 32, !dbg !6388
  br i1 %76, label %77, label %96, !dbg !6389

77:                                               ; preds = %73
  store i32 32, ptr %3, align 4, !dbg !6390
  store i32 1, ptr %7, align 4
  br label %97, !dbg !6390

78:                                               ; preds = %56
  %79 = landingpad { ptr, i32 }
          cleanup, !dbg !6369
  %80 = extractvalue { ptr, i32 } %79, 0, !dbg !6369
  store ptr %80, ptr %14, align 8, !dbg !6369
  %81 = extractvalue { ptr, i32 } %79, 1, !dbg !6369
  store i32 %81, ptr %15, align 4, !dbg !6369
  br label %91, !dbg !6369

82:                                               ; preds = %59
  %83 = landingpad { ptr, i32 }
          cleanup, !dbg !6369
  %84 = extractvalue { ptr, i32 } %83, 0, !dbg !6369
  store ptr %84, ptr %14, align 8, !dbg !6369
  %85 = extractvalue { ptr, i32 } %83, 1, !dbg !6369
  store i32 %85, ptr %15, align 4, !dbg !6369
  br label %90, !dbg !6369

86:                                               ; preds = %60
  %87 = landingpad { ptr, i32 }
          cleanup, !dbg !6369
  %88 = extractvalue { ptr, i32 } %87, 0, !dbg !6369
  store ptr %88, ptr %14, align 8, !dbg !6369
  %89 = extractvalue { ptr, i32 } %87, 1, !dbg !6369
  store i32 %89, ptr %15, align 4, !dbg !6369
  call void @_ZNSt7__cxx1112basic_stringIcSt11char_traitsIcESaIcEED2Ev(ptr noundef nonnull align 8 dereferenceable(32) %17) #16, !dbg !6376
  br label %90, !dbg !6376

90:                                               ; preds = %86, %82
  call void @_ZN9__gnu_cxx13new_allocatorIcED2Ev(ptr noundef nonnull align 1 dereferenceable(1) %18) #16, !dbg !6376
  call void @llvm.lifetime.end.p0(i64 1, ptr %18) #16, !dbg !6376
  br label %91, !dbg !6376

91:                                               ; preds = %90, %78
  call void @llvm.lifetime.end.p0(i64 32, ptr %17) #16, !dbg !6376
  br label %98, !dbg !6376

92:                                               ; preds = %70, %67, %64, %62, %61
  %93 = landingpad { ptr, i32 }
          cleanup, !dbg !6369
  %94 = extractvalue { ptr, i32 } %93, 0, !dbg !6369
  store ptr %94, ptr %14, align 8, !dbg !6369
  %95 = extractvalue { ptr, i32 } %93, 1, !dbg !6369
  store i32 %95, ptr %15, align 4, !dbg !6369
  br label %98, !dbg !6369

96:                                               ; preds = %73, %72
  store i32 0, ptr %3, align 4, !dbg !6392
  store i32 1, ptr %7, align 4
  br label %97, !dbg !6392

97:                                               ; preds = %96, %77
  call void @llvm.lifetime.end.p0(i64 1, ptr %16) #16, !dbg !6369
  br label %99

98:                                               ; preds = %92, %91
  call void @llvm.lifetime.end.p0(i64 1, ptr %16) #16, !dbg !6369
  br label %100, !dbg !6369

99:                                               ; preds = %97, %51
  call void @llvm.lifetime.end.p0(i64 1, ptr %13) #16, !dbg !6369
  call void @_ZNSt7__cxx1112basic_stringIcSt11char_traitsIcESaIcEED2Ev(ptr noundef nonnull align 8 dereferenceable(32) %12) #16, !dbg !6369
  call void @llvm.lifetime.end.p0(i64 32, ptr %12) #16, !dbg !6369
  call void @_ZNSt6threadD2Ev(ptr noundef nonnull align 8 dereferenceable(8) %10) #16, !dbg !6369
  call void @llvm.lifetime.end.p0(i64 8, ptr %10) #16, !dbg !6369
  call void @llvm.lifetime.end.p0(i64 8, ptr %9) #16, !dbg !6369
  br label %101

100:                                              ; preds = %98, %52
  call void @llvm.lifetime.end.p0(i64 1, ptr %13) #16, !dbg !6369
  call void @_ZNSt7__cxx1112basic_stringIcSt11char_traitsIcESaIcEED2Ev(ptr noundef nonnull align 8 dereferenceable(32) %12) #16, !dbg !6369
  call void @llvm.lifetime.end.p0(i64 32, ptr %12) #16, !dbg !6369
  call void @_ZNSt6threadD2Ev(ptr noundef nonnull align 8 dereferenceable(8) %10) #16, !dbg !6369
  call void @llvm.lifetime.end.p0(i64 8, ptr %10) #16, !dbg !6369
  call void @llvm.lifetime.end.p0(i64 8, ptr %9) #16, !dbg !6369
  call void @llvm.lifetime.end.p0(i64 8, ptr %8) #16, !dbg !6369
  call void @llvm.lifetime.end.p0(i64 8, ptr %6) #16, !dbg !6369
  br label %104, !dbg !6369

101:                                              ; preds = %99, %31
  call void @llvm.lifetime.end.p0(i64 8, ptr %8) #16, !dbg !6369
  br label %102

102:                                              ; preds = %101, %28
  call void @llvm.lifetime.end.p0(i64 8, ptr %6) #16, !dbg !6369
  %103 = load i32, ptr %3, align 4, !dbg !6369
  ret i32 %103, !dbg !6369

104:                                              ; preds = %100
  %105 = load ptr, ptr %14, align 8, !dbg !6369
  %106 = load i32, ptr %15, align 4, !dbg !6369
  %107 = insertvalue { ptr, i32 } poison, ptr %105, 0, !dbg !6369
  %108 = insertvalue { ptr, i32 } %107, i32 %106, 1, !dbg !6369
  resume { ptr, i32 } %108, !dbg !6369
}

; Function Attrs: inlinehint mustprogress nounwind uwtable
define linkonce_odr dso_local noundef ptr @_Z21defaultServiceManagerv() #6 comdat !dbg !4345 {
  ret ptr @_ZZ21defaultServiceManagervE3mgr, !dbg !6393
}

; Function Attrs: mustprogress uwtable
define linkonce_odr dso_local ptr @_ZN14ServiceManager12checkServiceEPKc(ptr noundef nonnull align 1 dereferenceable(1) %0, ptr noundef %1) #5 comdat align 2 !dbg !6394 {
  %3 = alloca %class.sp.0, align 8
  %4 = alloca ptr, align 8
  %5 = alloca ptr, align 8
  store ptr %0, ptr %4, align 8, !tbaa !5343
  call void @llvm.dbg.declare(metadata ptr %4, metadata !6396, metadata !DIExpression()), !dbg !6398
  store ptr %1, ptr %5, align 8, !tbaa !5343
  call void @llvm.dbg.declare(metadata ptr %5, metadata !6397, metadata !DIExpression()), !dbg !6399
  %6 = load ptr, ptr %4, align 8
  %7 = call noalias noundef nonnull ptr @_Znwm(i64 noundef 1) #29, !dbg !6400, !heapallocsite !1378
  call void @_ZN2spI7IBinderEC2EPS0_(ptr noundef nonnull align 8 dereferenceable(8) %3, ptr noundef %7), !dbg !6401
  %8 = getelementptr inbounds %class.sp.0, ptr %3, i32 0, i32 0, !dbg !6402
  %9 = load ptr, ptr %8, align 8, !dbg !6402
  ret ptr %9, !dbg !6402
}

; Function Attrs: mustprogress nounwind uwtable
define linkonce_odr dso_local noundef zeroext i1 @_ZNK2spI7IBinderEcvbEv(ptr noundef nonnull align 8 dereferenceable(8) %0) #10 comdat align 2 !dbg !6403 {
  %2 = alloca ptr, align 8
  store ptr %0, ptr %2, align 8, !tbaa !5343
  call void @llvm.dbg.declare(metadata ptr %2, metadata !6405, metadata !DIExpression()), !dbg !6407
  %3 = load ptr, ptr %2, align 8
  %4 = getelementptr inbounds %class.sp.0, ptr %3, i32 0, i32 0, !dbg !6408
  %5 = load ptr, ptr %4, align 8, !dbg !6408, !tbaa !6409
  %6 = icmp ne ptr %5, null, !dbg !6411
  ret i1 %6, !dbg !6412
}

; Function Attrs: inlinehint mustprogress nounwind uwtable
define linkonce_odr dso_local noundef i64 @_Z8Nanotimev() #6 comdat !dbg !6413 {
  ret i64 0, !dbg !6416
}

; Function Attrs: uwtable
define internal void @"_ZNSt6threadC2IZNK18TextDumpsysSection12BlockingCallER9unique_fdE3$_0JEvEEOT_DpOT0_"(ptr noundef nonnull align 8 dereferenceable(8) %0, ptr noundef nonnull align 8 dereferenceable(24) %1) unnamed_addr #0 align 2 personality ptr @__gxx_personality_v0 !dbg !6417 {
  %3 = alloca ptr, align 8
  %4 = alloca ptr, align 8
  %5 = alloca ptr, align 8
  %6 = alloca %"class.std::unique_ptr.22", align 8
  %7 = alloca ptr, align 8
  %8 = alloca i32, align 4
  store ptr %0, ptr %3, align 8, !tbaa !5343
  call void @llvm.dbg.declare(metadata ptr %3, metadata !6424, metadata !DIExpression()), !dbg !6429
  store ptr %1, ptr %4, align 8, !tbaa !5343
  call void @llvm.dbg.declare(metadata ptr %4, metadata !6426, metadata !DIExpression()), !dbg !6430
  %9 = load ptr, ptr %3, align 8
  %10 = getelementptr inbounds %"class.std::thread", ptr %9, i32 0, i32 0, !dbg !6431
  call void @_ZNSt6thread2idC2Ev(ptr noundef nonnull align 8 dereferenceable(8) %10) #16, !dbg !6431
  call void @llvm.lifetime.start.p0(i64 8, ptr %5) #16, !dbg !6432
  call void @llvm.dbg.declare(metadata ptr %5, metadata !6427, metadata !DIExpression()), !dbg !6433
  store ptr null, ptr %5, align 8, !dbg !6433, !tbaa !6434
  %11 = call noalias noundef nonnull ptr @_Znwm(i64 noundef 32) #29, !dbg !6436, !heapallocsite !6437
  %12 = load ptr, ptr %4, align 8, !dbg !6447, !tbaa !5343
  invoke void @"_ZNSt6thread11_State_implINS_8_InvokerISt5tupleIJZNK18TextDumpsysSection12BlockingCallER9unique_fdE3$_0EEEEEC2IJS6_EEEDpOT_"(ptr noundef nonnull align 8 dereferenceable(32) %11, ptr noundef nonnull align 8 dereferenceable(24) %12)
          to label %13 unwind label %15, !dbg !6448

13:                                               ; preds = %2
  call void @_ZNSt10unique_ptrINSt6thread6_StateESt14default_deleteIS1_EEC2IS3_vEEPS1_(ptr noundef nonnull align 8 dereferenceable(8) %6, ptr noundef %11) #16, !dbg !6449
  invoke void @_ZNSt6thread15_M_start_threadESt10unique_ptrINS_6_StateESt14default_deleteIS1_EEPFvvE(ptr noundef nonnull align 8 dereferenceable(8) %9, ptr noundef %6, ptr noundef null)
          to label %14 unwind label %19, !dbg !6450

14:                                               ; preds = %13
  call void @_ZNSt10unique_ptrINSt6thread6_StateESt14default_deleteIS1_EED2Ev(ptr noundef nonnull align 8 dereferenceable(8) %6) #16, !dbg !6450
  call void @llvm.lifetime.end.p0(i64 8, ptr %5) #16, !dbg !6451
  ret void, !dbg !6451

15:                                               ; preds = %2
  %16 = landingpad { ptr, i32 }
          cleanup, !dbg !6452
  %17 = extractvalue { ptr, i32 } %16, 0, !dbg !6452
  store ptr %17, ptr %7, align 8, !dbg !6452
  %18 = extractvalue { ptr, i32 } %16, 1, !dbg !6452
  store i32 %18, ptr %8, align 4, !dbg !6452
  call void @_ZdlPv(ptr noundef %11) #27, !dbg !6436
  br label %23, !dbg !6436

19:                                               ; preds = %13
  %20 = landingpad { ptr, i32 }
          cleanup, !dbg !6452
  %21 = extractvalue { ptr, i32 } %20, 0, !dbg !6452
  store ptr %21, ptr %7, align 8, !dbg !6452
  %22 = extractvalue { ptr, i32 } %20, 1, !dbg !6452
  store i32 %22, ptr %8, align 4, !dbg !6452
  call void @_ZNSt10unique_ptrINSt6thread6_StateESt14default_deleteIS1_EED2Ev(ptr noundef nonnull align 8 dereferenceable(8) %6) #16, !dbg !6450
  br label %23, !dbg !6450

23:                                               ; preds = %19, %15
  call void @llvm.lifetime.end.p0(i64 8, ptr %5) #16, !dbg !6451
  br label %24, !dbg !6451

24:                                               ; preds = %23
  %25 = load ptr, ptr %7, align 8, !dbg !6451
  %26 = load i32, ptr %8, align 4, !dbg !6451
  %27 = insertvalue { ptr, i32 } poison, ptr %25, 0, !dbg !6451
  %28 = insertvalue { ptr, i32 } %27, i32 %26, 1, !dbg !6451
  resume { ptr, i32 } %28, !dbg !6451
}

; Function Attrs: nounwind uwtable
define available_externally void @_ZNSt7__cxx1112basic_stringIcSt11char_traitsIcESaIcEEC2Ev(ptr noundef nonnull align 8 dereferenceable(32) %0) unnamed_addr #8 align 2 personality ptr @__gxx_personality_v0 !dbg !6453 {
  %2 = alloca ptr, align 8
  %3 = alloca %"class.std::allocator", align 1
  store ptr %0, ptr %2, align 8, !tbaa !5343
  call void @llvm.dbg.declare(metadata ptr %2, metadata !6455, metadata !DIExpression()), !dbg !6457
  %4 = load ptr, ptr %2, align 8
  %5 = getelementptr inbounds %"class.std::__cxx11::basic_string", ptr %4, i32 0, i32 0, !dbg !6458
  %6 = call noundef ptr @_ZNSt7__cxx1112basic_stringIcSt11char_traitsIcESaIcEE13_M_local_dataEv(ptr noundef nonnull align 8 dereferenceable(32) %4), !dbg !6459
  call void @llvm.lifetime.start.p0(i64 1, ptr %3) #16, !dbg !6458
  call void @_ZNSaIcEC2Ev(ptr noundef nonnull align 1 dereferenceable(1) %3) #16, !dbg !6458
  invoke void @_ZNSt7__cxx1112basic_stringIcSt11char_traitsIcESaIcEE12_Alloc_hiderC2EPcOS3_(ptr noundef nonnull align 8 dereferenceable(8) %5, ptr noundef %6, ptr noundef nonnull align 1 dereferenceable(1) %3)
          to label %7 unwind label %9, !dbg !6458

7:                                                ; preds = %1
  call void @_ZN9__gnu_cxx13new_allocatorIcED2Ev(ptr noundef nonnull align 1 dereferenceable(1) %3) #16, !dbg !6458
  call void @llvm.lifetime.end.p0(i64 1, ptr %3) #16, !dbg !6458
  invoke void @_ZNSt7__cxx1112basic_stringIcSt11char_traitsIcESaIcEE13_M_set_lengthEm(ptr noundef nonnull align 8 dereferenceable(32) %4, i64 noundef 0)
          to label %8 unwind label %9, !dbg !6460

8:                                                ; preds = %7
  ret void, !dbg !6462

9:                                                ; preds = %7, %1
  %10 = landingpad { ptr, i32 }
          catch ptr null, !dbg !6458
  %11 = extractvalue { ptr, i32 } %10, 0, !dbg !6458
  call void @__clang_call_terminate(ptr %11) #30, !dbg !6458
  unreachable, !dbg !6458
}

; Function Attrs: inlinehint mustprogress uwtable
define linkonce_odr dso_local noundef zeroext i1 @_Z14ReadFdToStringR9unique_fdPNSt7__cxx1112basic_stringIcSt11char_traitsIcESaIcEEE(ptr noundef nonnull align 4 dereferenceable(4) %0, ptr noundef %1) #15 comdat !dbg !6463 {
  %3 = alloca ptr, align 8
  %4 = alloca ptr, align 8
  store ptr %0, ptr %3, align 8, !tbaa !5343
  call void @llvm.dbg.declare(metadata ptr %3, metadata !6468, metadata !DIExpression()), !dbg !6470
  store ptr %1, ptr %4, align 8, !tbaa !5343
  call void @llvm.dbg.declare(metadata ptr %4, metadata !6469, metadata !DIExpression()), !dbg !6471
  %5 = load ptr, ptr %4, align 8, !dbg !6472, !tbaa !5343
  %6 = call noundef nonnull align 8 dereferenceable(32) ptr @_ZNSt7__cxx1112basic_stringIcSt11char_traitsIcESaIcEEaSEPKc(ptr noundef nonnull align 8 dereferenceable(32) %5, ptr noundef @.str.21), !dbg !6473
  ret i1 true, !dbg !6474
}

declare void @_ZNSt6thread4joinEv(ptr noundef nonnull align 8 dereferenceable(8)) #2

; Function Attrs: mustprogress nounwind uwtable
define linkonce_odr dso_local void @_ZN17ProtoOutputStream5writeEjRKNSt7__cxx1112basic_stringIcSt11char_traitsIcESaIcEEE(ptr noundef nonnull align 1 dereferenceable(1) %0, i32 noundef %1, ptr noundef nonnull align 8 dereferenceable(32) %2) #10 comdat align 2 !dbg !6475 {
  %4 = alloca ptr, align 8
  %5 = alloca i32, align 4
  %6 = alloca ptr, align 8
  store ptr %0, ptr %4, align 8, !tbaa !5343
  call void @llvm.dbg.declare(metadata ptr %4, metadata !6477, metadata !DIExpression()), !dbg !6481
  store i32 %1, ptr %5, align 4, !tbaa !5348
  call void @llvm.dbg.declare(metadata ptr %5, metadata !6479, metadata !DIExpression()), !dbg !6482
  store ptr %2, ptr %6, align 8, !tbaa !5343
  call void @llvm.dbg.declare(metadata ptr %6, metadata !6480, metadata !DIExpression()), !dbg !6483
  %7 = load ptr, ptr %4, align 8
  ret void, !dbg !6484
}

; Function Attrs: mustprogress nounwind uwtable
define linkonce_odr dso_local noundef ptr @_ZNK7String86stringEv(ptr noundef nonnull align 8 dereferenceable(32) %0) #10 comdat align 2 !dbg !6485 {
  %2 = alloca ptr, align 8
  store ptr %0, ptr %2, align 8, !tbaa !5343
  call void @llvm.dbg.declare(metadata ptr %2, metadata !6487, metadata !DIExpression()), !dbg !6489
  %3 = load ptr, ptr %2, align 8
  %4 = getelementptr inbounds %class.String8, ptr %3, i32 0, i32 0, !dbg !6490
  %5 = call noundef ptr @_ZNKSt7__cxx1112basic_stringIcSt11char_traitsIcESaIcEE5c_strEv(ptr noundef nonnull align 8 dereferenceable(32) %4) #16, !dbg !6491
  ret ptr %5, !dbg !6492
}

; Function Attrs: nounwind uwtable
define available_externally void @_ZNSaIcEC2Ev(ptr noundef nonnull align 1 dereferenceable(1) %0) unnamed_addr #8 align 2 !dbg !6493 {
  %2 = alloca ptr, align 8
  store ptr %0, ptr %2, align 8, !tbaa !5343
  call void @llvm.dbg.declare(metadata ptr %2, metadata !6495, metadata !DIExpression()), !dbg !6497
  %3 = load ptr, ptr %2, align 8
  call void @_ZN9__gnu_cxx13new_allocatorIcEC2Ev(ptr noundef nonnull align 1 dereferenceable(1) %3) #16, !dbg !6498
  ret void, !dbg !6499
}

; Function Attrs: uwtable
define linkonce_odr dso_local void @_ZNSt7__cxx1112basic_stringIcSt11char_traitsIcESaIcEEC2IS3_EEPKcRKS3_(ptr noundef nonnull align 8 dereferenceable(32) %0, ptr noundef %1, ptr noundef nonnull align 1 dereferenceable(1) %2) unnamed_addr #0 comdat align 2 personality ptr @__gxx_personality_v0 !dbg !6500 {
  %4 = alloca ptr, align 8
  %5 = alloca ptr, align 8
  %6 = alloca ptr, align 8
  %7 = alloca ptr, align 8
  %8 = alloca ptr, align 8
  %9 = alloca i32, align 4
  %10 = alloca %"struct.std::forward_iterator_tag", align 1
  %11 = alloca %"struct.std::random_access_iterator_tag", align 1
  store ptr %0, ptr %4, align 8, !tbaa !5343
  call void @llvm.dbg.declare(metadata ptr %4, metadata !6507, metadata !DIExpression()), !dbg !6512
  store ptr %1, ptr %5, align 8, !tbaa !5343
  call void @llvm.dbg.declare(metadata ptr %5, metadata !6508, metadata !DIExpression()), !dbg !6513
  store ptr %2, ptr %6, align 8, !tbaa !5343
  call void @llvm.dbg.declare(metadata ptr %6, metadata !6509, metadata !DIExpression()), !dbg !6514
  %12 = load ptr, ptr %4, align 8
  %13 = getelementptr inbounds %"class.std::__cxx11::basic_string", ptr %12, i32 0, i32 0, !dbg !6515
  %14 = call noundef ptr @_ZNSt7__cxx1112basic_stringIcSt11char_traitsIcESaIcEE13_M_local_dataEv(ptr noundef nonnull align 8 dereferenceable(32) %12), !dbg !6516
  %15 = load ptr, ptr %6, align 8, !dbg !6517, !tbaa !5343
  call void @_ZNSt7__cxx1112basic_stringIcSt11char_traitsIcESaIcEE12_Alloc_hiderC2EPcRKS3_(ptr noundef nonnull align 8 dereferenceable(8) %13, ptr noundef %14, ptr noundef nonnull align 1 dereferenceable(1) %15), !dbg !6515
  call void @llvm.lifetime.start.p0(i64 8, ptr %7) #16, !dbg !6518
  call void @llvm.dbg.declare(metadata ptr %7, metadata !6510, metadata !DIExpression()), !dbg !6519
  %16 = load ptr, ptr %5, align 8, !dbg !6520, !tbaa !5343
  %17 = icmp ne ptr %16, null, !dbg !6520
  br i1 %17, label %18, label %24, !dbg !6520

18:                                               ; preds = %3
  %19 = load ptr, ptr %5, align 8, !dbg !6521, !tbaa !5343
  %20 = load ptr, ptr %5, align 8, !dbg !6522, !tbaa !5343
  %21 = invoke noundef i64 @_ZNSt11char_traitsIcE6lengthEPKc(ptr noundef %20)
          to label %22 unwind label %30, !dbg !6523

22:                                               ; preds = %18
  %23 = getelementptr inbounds i8, ptr %19, i64 %21, !dbg !6524
  br label %25, !dbg !6520

24:                                               ; preds = %3
  br label %25, !dbg !6520

25:                                               ; preds = %24, %22
  %26 = phi ptr [ %23, %22 ], [ inttoptr (i64 1 to ptr), %24 ], !dbg !6520
  store ptr %26, ptr %7, align 8, !dbg !6519, !tbaa !5343
  %27 = load ptr, ptr %5, align 8, !dbg !6525, !tbaa !5343
  %28 = load ptr, ptr %7, align 8, !dbg !6526, !tbaa !5343
  call void @llvm.lifetime.start.p0(i64 1, ptr %11) #16, !dbg !6527
  invoke void @_ZNSt7__cxx1112basic_stringIcSt11char_traitsIcESaIcEE12_M_constructIPKcEEvT_S8_St20forward_iterator_tag(ptr noundef nonnull align 8 dereferenceable(32) %12, ptr noundef %27, ptr noundef %28)
          to label %29 unwind label %34, !dbg !6528

29:                                               ; preds = %25
  call void @llvm.lifetime.end.p0(i64 1, ptr %11) #16, !dbg !6528
  call void @llvm.lifetime.end.p0(i64 8, ptr %7) #16, !dbg !6529
  ret void, !dbg !6529

30:                                               ; preds = %18
  %31 = landingpad { ptr, i32 }
          cleanup, !dbg !6530
  %32 = extractvalue { ptr, i32 } %31, 0, !dbg !6530
  store ptr %32, ptr %8, align 8, !dbg !6530
  %33 = extractvalue { ptr, i32 } %31, 1, !dbg !6530
  store i32 %33, ptr %9, align 4, !dbg !6530
  br label %38, !dbg !6530

34:                                               ; preds = %25
  %35 = landingpad { ptr, i32 }
          cleanup, !dbg !6530
  %36 = extractvalue { ptr, i32 } %35, 0, !dbg !6530
  store ptr %36, ptr %8, align 8, !dbg !6530
  %37 = extractvalue { ptr, i32 } %35, 1, !dbg !6530
  store i32 %37, ptr %9, align 4, !dbg !6530
  call void @llvm.lifetime.end.p0(i64 1, ptr %11) #16, !dbg !6528
  br label %38, !dbg !6528

38:                                               ; preds = %34, %30
  call void @llvm.lifetime.end.p0(i64 8, ptr %7) #16, !dbg !6529
  call void @_ZN9__gnu_cxx13new_allocatorIcED2Ev(ptr noundef nonnull align 8 dereferenceable(8) %13) #16, !dbg !6530
  br label %39, !dbg !6530

39:                                               ; preds = %38
  %40 = load ptr, ptr %8, align 8, !dbg !6530
  %41 = load i32, ptr %9, align 4, !dbg !6530
  %42 = insertvalue { ptr, i32 } poison, ptr %40, 0, !dbg !6530
  %43 = insertvalue { ptr, i32 } %42, i32 %41, 1, !dbg !6530
  resume { ptr, i32 } %43, !dbg !6530
}

; Function Attrs: nounwind uwtable
define available_externally void @_ZNSt7__cxx1112basic_stringIcSt11char_traitsIcESaIcEED2Ev(ptr noundef nonnull align 8 dereferenceable(32) %0) unnamed_addr #8 align 2 personality ptr @__gxx_personality_v0 !dbg !6531 {
  %2 = alloca ptr, align 8
  store ptr %0, ptr %2, align 8, !tbaa !5343
  call void @llvm.dbg.declare(metadata ptr %2, metadata !6533, metadata !DIExpression()), !dbg !6534
  %3 = load ptr, ptr %2, align 8
  invoke void @_ZNSt7__cxx1112basic_stringIcSt11char_traitsIcESaIcEE10_M_disposeEv(ptr noundef nonnull align 8 dereferenceable(32) %3)
          to label %4 unwind label %6, !dbg !6535

4:                                                ; preds = %1
  %5 = getelementptr inbounds %"class.std::__cxx11::basic_string", ptr %3, i32 0, i32 0, !dbg !6537
  call void @_ZN9__gnu_cxx13new_allocatorIcED2Ev(ptr noundef nonnull align 8 dereferenceable(8) %5) #16, !dbg !6537
  ret void, !dbg !6538

6:                                                ; preds = %1
  %7 = landingpad { ptr, i32 }
          catch ptr null, !dbg !6535
  %8 = extractvalue { ptr, i32 } %7, 0, !dbg !6535
  call void @__clang_call_terminate(ptr %8) #30, !dbg !6535
  unreachable, !dbg !6535
}

; Function Attrs: mustprogress nounwind uwtable
define linkonce_odr dso_local void @_ZN17ProtoOutputStream5writeEjl(ptr noundef nonnull align 1 dereferenceable(1) %0, i32 noundef %1, i64 noundef %2) #10 comdat align 2 !dbg !6539 {
  %4 = alloca ptr, align 8
  %5 = alloca i32, align 4
  %6 = alloca i64, align 8
  store ptr %0, ptr %4, align 8, !tbaa !5343
  call void @llvm.dbg.declare(metadata ptr %4, metadata !6541, metadata !DIExpression()), !dbg !6544
  store i32 %1, ptr %5, align 4, !tbaa !5348
  call void @llvm.dbg.declare(metadata ptr %5, metadata !6542, metadata !DIExpression()), !dbg !6545
  store i64 %2, ptr %6, align 8, !tbaa !5352
  call void @llvm.dbg.declare(metadata ptr %6, metadata !6543, metadata !DIExpression()), !dbg !6546
  %7 = load ptr, ptr %4, align 8
  ret void, !dbg !6547
}

; Function Attrs: mustprogress nounwind uwtable
define linkonce_odr dso_local noundef zeroext i1 @_ZN17ProtoOutputStream5flushEi(ptr noundef nonnull align 1 dereferenceable(1) %0, i32 noundef %1) #10 comdat align 2 !dbg !6548 {
  %3 = alloca ptr, align 8
  %4 = alloca i32, align 4
  store ptr %0, ptr %3, align 8, !tbaa !5343
  call void @llvm.dbg.declare(metadata ptr %3, metadata !6550, metadata !DIExpression()), !dbg !6552
  store i32 %1, ptr %4, align 4, !tbaa !5348
  call void @llvm.dbg.declare(metadata ptr %4, metadata !6551, metadata !DIExpression()), !dbg !6553
  %5 = load ptr, ptr %3, align 8
  ret i1 true, !dbg !6554
}

; Function Attrs: nounwind uwtable
define linkonce_odr dso_local void @_ZNSt6threadD2Ev(ptr noundef nonnull align 8 dereferenceable(8) %0) unnamed_addr #8 comdat align 2 !dbg !6555 {
  %2 = alloca ptr, align 8
  store ptr %0, ptr %2, align 8, !tbaa !5343
  call void @llvm.dbg.declare(metadata ptr %2, metadata !6557, metadata !DIExpression()), !dbg !6558
  %3 = load ptr, ptr %2, align 8
  %4 = call noundef zeroext i1 @_ZNKSt6thread8joinableEv(ptr noundef nonnull align 8 dereferenceable(8) %3) #16, !dbg !6559
  br i1 %4, label %5, label %6, !dbg !6562

5:                                                ; preds = %1
  call void @_ZSt9terminatev() #30, !dbg !6563
  unreachable, !dbg !6563

6:                                                ; preds = %1
  ret void, !dbg !6564
}

; Function Attrs: uwtable
define internal void @__cxx_global_var_init() #0 section ".text.startup" !dbg !6565 {
  call void @_ZNSt3mapIiiSt4lessIiESaISt4pairIKiiEEEC2Ev(ptr noundef nonnull align 8 dereferenceable(48) @_ZN10LogSection18gLastLogsRetrievedE) #16, !dbg !6566
  %1 = call i32 @__cxa_atexit(ptr @_ZNSt3mapIiiSt4lessIiESaISt4pairIKiiEEED2Ev, ptr @_ZN10LogSection18gLastLogsRetrievedE, ptr @__dso_handle) #16, !dbg !6568
  ret void, !dbg !6566
}

; Function Attrs: nounwind uwtable
define linkonce_odr dso_local void @_ZNSt3mapIiiSt4lessIiESaISt4pairIKiiEEEC2Ev(ptr noundef nonnull align 8 dereferenceable(48) %0) unnamed_addr #8 comdat align 2 !dbg !6569 {
  %2 = alloca ptr, align 8
  store ptr %0, ptr %2, align 8, !tbaa !5343
  call void @llvm.dbg.declare(metadata ptr %2, metadata !6571, metadata !DIExpression()), !dbg !6573
  %3 = load ptr, ptr %2, align 8
  %4 = getelementptr inbounds %"class.std::map", ptr %3, i32 0, i32 0, !dbg !6574
  call void @_ZNSt8_Rb_treeIiSt4pairIKiiESt10_Select1stIS2_ESt4lessIiESaIS2_EEC2Ev(ptr noundef nonnull align 8 dereferenceable(48) %4) #16, !dbg !6574
  ret void, !dbg !6575
}

; Function Attrs: nounwind uwtable
define linkonce_odr dso_local void @_ZNSt3mapIiiSt4lessIiESaISt4pairIKiiEEED2Ev(ptr noundef nonnull align 8 dereferenceable(48) %0) unnamed_addr #8 comdat align 2 !dbg !6576 {
  %2 = alloca ptr, align 8
  store ptr %0, ptr %2, align 8, !tbaa !5343
  call void @llvm.dbg.declare(metadata ptr %2, metadata !6578, metadata !DIExpression()), !dbg !6579
  %3 = load ptr, ptr %2, align 8
  %4 = getelementptr inbounds %"class.std::map", ptr %3, i32 0, i32 0, !dbg !6580
  call void @_ZNSt8_Rb_treeIiSt4pairIKiiESt10_Select1stIS2_ESt4lessIiESaIS2_EED2Ev(ptr noundef nonnull align 8 dereferenceable(48) %4) #16, !dbg !6580
  ret void, !dbg !6582
}

; Function Attrs: nounwind
declare i32 @__cxa_atexit(ptr, ptr, ptr) #16

; Function Attrs: uwtable
define dso_local void @_ZN10LogSectionC2EiPKcz(ptr noundef nonnull align 8 dereferenceable(68) %0, i32 noundef %1, ptr noundef %2, ...) unnamed_addr #0 align 2 personality ptr @__gxx_personality_v0 !dbg !6583 {
  %4 = alloca ptr, align 8
  %5 = alloca i32, align 4
  %6 = alloca ptr, align 8
  %7 = alloca %class.String8, align 8
  %8 = alloca ptr, align 8
  %9 = alloca i32, align 4
  %10 = alloca [1 x %struct.__va_list_tag], align 16
  %11 = alloca ptr, align 8
  %12 = alloca i32, align 4
  store ptr %0, ptr %4, align 8, !tbaa !5343
  call void @llvm.dbg.declare(metadata ptr %4, metadata !6589, metadata !DIExpression()), !dbg !6597
  store i32 %1, ptr %5, align 4, !tbaa !5348
  call void @llvm.dbg.declare(metadata ptr %5, metadata !6591, metadata !DIExpression()), !dbg !6598
  store ptr %2, ptr %6, align 8, !tbaa !5343
  call void @llvm.dbg.declare(metadata ptr %6, metadata !6592, metadata !DIExpression()), !dbg !6599
  %13 = load ptr, ptr %4, align 8
  %14 = load i32, ptr %5, align 4, !dbg !6600, !tbaa !5348
  call void @_ZN19WorkerThreadSectionC2Ei(ptr noundef nonnull align 8 dereferenceable(56) %13, i32 noundef %14), !dbg !6601
  store ptr getelementptr inbounds ({ [6 x ptr] }, ptr @_ZTV10LogSection, i32 0, inrange i32 0, i32 2), ptr %13, align 8, !dbg !6602, !tbaa !5359
  %15 = getelementptr inbounds %class.LogSection, ptr %13, i32 0, i32 4, !dbg !6603
  store i32 0, ptr %15, align 8, !dbg !6603, !tbaa !6604
  call void @llvm.lifetime.start.p0(i64 32, ptr %7) #16, !dbg !6606
  invoke void @_ZN7String8C2EPKc(ptr noundef nonnull align 8 dereferenceable(32) %7, ptr noundef @.str.5)
          to label %16 unwind label %39, !dbg !6606

16:                                               ; preds = %3
  %17 = getelementptr inbounds %class.Section, ptr %13, i32 0, i32 3, !dbg !6607
  %18 = call noundef nonnull align 8 dereferenceable(32) ptr @_ZN7String8aSEOS_(ptr noundef nonnull align 8 dereferenceable(32) %17, ptr noundef nonnull align 8 dereferenceable(32) %7) #16, !dbg !6608
  call void @_ZN7String8D2Ev(ptr noundef nonnull align 8 dereferenceable(32) %7) #16, !dbg !6607
  call void @llvm.lifetime.end.p0(i64 32, ptr %7) #16, !dbg !6607
  %19 = load ptr, ptr %6, align 8, !dbg !6609, !tbaa !5343
  %20 = getelementptr inbounds %class.Section, ptr %13, i32 0, i32 3, !dbg !6610
  %21 = invoke noundef nonnull align 8 dereferenceable(32) ptr @_ZN7String8pLEPKc(ptr noundef nonnull align 8 dereferenceable(32) %20, ptr noundef %19)
          to label %22 unwind label %43, !dbg !6611

22:                                               ; preds = %16
  call void @llvm.lifetime.start.p0(i64 24, ptr %10) #16, !dbg !6612
  call void @llvm.dbg.declare(metadata ptr %10, metadata !6593, metadata !DIExpression()), !dbg !6613
  %23 = getelementptr inbounds [1 x %struct.__va_list_tag], ptr %10, i64 0, i64 0, !dbg !6614
  call void @llvm.va_start(ptr %23), !dbg !6614
  %24 = load ptr, ptr %6, align 8, !dbg !6615, !tbaa !5343
  %25 = invoke noundef i32 @_Z22android_name_to_log_idPKc(ptr noundef %24)
          to label %26 unwind label %47, !dbg !6616

26:                                               ; preds = %22
  %27 = getelementptr inbounds %class.LogSection, ptr %13, i32 0, i32 1, !dbg !6617
  store i32 %25, ptr %27, align 8, !dbg !6618, !tbaa !6619
  br label %28, !dbg !6620

28:                                               ; preds = %80, %26
  br label %29, !dbg !6620

29:                                               ; preds = %28
  call void @llvm.lifetime.start.p0(i64 8, ptr %11) #16, !dbg !6621
  call void @llvm.dbg.declare(metadata ptr %11, metadata !6595, metadata !DIExpression()), !dbg !6622
  %30 = getelementptr inbounds [1 x %struct.__va_list_tag], ptr %10, i64 0, i64 0, !dbg !6623
  %31 = getelementptr inbounds %struct.__va_list_tag, ptr %30, i32 0, i32 0, !dbg !6623
  %32 = load i32, ptr %31, align 16, !dbg !6623
  %33 = icmp ule i32 %32, 40, !dbg !6623
  br i1 %33, label %34, label %51, !dbg !6623

34:                                               ; preds = %29
  %35 = getelementptr inbounds %struct.__va_list_tag, ptr %30, i32 0, i32 3, !dbg !6623
  %36 = load ptr, ptr %35, align 16, !dbg !6623
  %37 = getelementptr i8, ptr %36, i32 %32, !dbg !6623
  %38 = add i32 %32, 8, !dbg !6623
  store i32 %38, ptr %31, align 16, !dbg !6623
  br label %55, !dbg !6623

39:                                               ; preds = %3
  %40 = landingpad { ptr, i32 }
          cleanup, !dbg !6624
  %41 = extractvalue { ptr, i32 } %40, 0, !dbg !6624
  store ptr %41, ptr %8, align 8, !dbg !6624
  %42 = extractvalue { ptr, i32 } %40, 1, !dbg !6624
  store i32 %42, ptr %9, align 4, !dbg !6624
  call void @llvm.lifetime.end.p0(i64 32, ptr %7) #16, !dbg !6607
  br label %95, !dbg !6607

43:                                               ; preds = %16
  %44 = landingpad { ptr, i32 }
          cleanup, !dbg !6624
  %45 = extractvalue { ptr, i32 } %44, 0, !dbg !6624
  store ptr %45, ptr %8, align 8, !dbg !6624
  %46 = extractvalue { ptr, i32 } %44, 1, !dbg !6624
  store i32 %46, ptr %9, align 4, !dbg !6624
  br label %95, !dbg !6624

47:                                               ; preds = %22
  %48 = landingpad { ptr, i32 }
          cleanup, !dbg !6624
  %49 = extractvalue { ptr, i32 } %48, 0, !dbg !6624
  store ptr %49, ptr %8, align 8, !dbg !6624
  %50 = extractvalue { ptr, i32 } %48, 1, !dbg !6624
  store i32 %50, ptr %9, align 4, !dbg !6624
  br label %94, !dbg !6624

51:                                               ; preds = %29
  %52 = getelementptr inbounds %struct.__va_list_tag, ptr %30, i32 0, i32 2, !dbg !6623
  %53 = load ptr, ptr %52, align 8, !dbg !6623
  %54 = getelementptr i8, ptr %53, i32 8, !dbg !6623
  store ptr %54, ptr %52, align 8, !dbg !6623
  br label %55, !dbg !6623

55:                                               ; preds = %51, %34
  %56 = phi ptr [ %37, %34 ], [ %53, %51 ], !dbg !6623
  %57 = load ptr, ptr %56, align 8, !dbg !6623
  store ptr %57, ptr %11, align 8, !dbg !6622, !tbaa !5343
  %58 = load ptr, ptr %11, align 8, !dbg !6625, !tbaa !5343
  %59 = icmp eq ptr %58, null, !dbg !6627
  br i1 %59, label %60, label %61, !dbg !6628

60:                                               ; preds = %55
  store i32 3, ptr %12, align 4
  br label %78, !dbg !6629

61:                                               ; preds = %55
  %62 = load ptr, ptr %11, align 8, !dbg !6631, !tbaa !5343
  %63 = call i32 @strcmp(ptr noundef %62, ptr noundef @.str.6) #26, !dbg !6633
  %64 = icmp ne i32 %63, 0, !dbg !6633
  br i1 %64, label %70, label %65, !dbg !6634

65:                                               ; preds = %61
  %66 = getelementptr inbounds %class.LogSection, ptr %13, i32 0, i32 4, !dbg !6635
  %67 = load i32, ptr %66, align 8, !dbg !6635, !tbaa !6604
  %68 = or i32 %67, 1, !dbg !6637
  %69 = getelementptr inbounds %class.LogSection, ptr %13, i32 0, i32 4, !dbg !6638
  store i32 %68, ptr %69, align 8, !dbg !6639, !tbaa !6604
  br label %70, !dbg !6640

70:                                               ; preds = %65, %61
  %71 = getelementptr inbounds %class.Section, ptr %13, i32 0, i32 3, !dbg !6641
  %72 = invoke noundef nonnull align 8 dereferenceable(32) ptr @_ZN7String8pLEPKc(ptr noundef nonnull align 8 dereferenceable(32) %71, ptr noundef @.str.3)
          to label %73 unwind label %81, !dbg !6642

73:                                               ; preds = %70
  %74 = load ptr, ptr %11, align 8, !dbg !6643, !tbaa !5343
  %75 = getelementptr inbounds %class.Section, ptr %13, i32 0, i32 3, !dbg !6644
  %76 = invoke noundef nonnull align 8 dereferenceable(32) ptr @_ZN7String8pLEPKc(ptr noundef nonnull align 8 dereferenceable(32) %75, ptr noundef %74)
          to label %77 unwind label %81, !dbg !6645

77:                                               ; preds = %73
  store i32 0, ptr %12, align 4, !dbg !6646
  br label %78, !dbg !6646

78:                                               ; preds = %77, %60
  call void @llvm.lifetime.end.p0(i64 8, ptr %11) #16, !dbg !6646
  %79 = load i32, ptr %12, align 4
  switch i32 %79, label %101 [
    i32 0, label %80
    i32 3, label %85
  ]

80:                                               ; preds = %78
  br label %28, !dbg !6620, !llvm.loop !6647

81:                                               ; preds = %73, %70
  %82 = landingpad { ptr, i32 }
          cleanup, !dbg !6648
  %83 = extractvalue { ptr, i32 } %82, 0, !dbg !6648
  store ptr %83, ptr %8, align 8, !dbg !6648
  %84 = extractvalue { ptr, i32 } %82, 1, !dbg !6648
  store i32 %84, ptr %9, align 4, !dbg !6648
  call void @llvm.lifetime.end.p0(i64 8, ptr %11) #16, !dbg !6646
  br label %94, !dbg !6646

85:                                               ; preds = %78
  %86 = getelementptr inbounds [1 x %struct.__va_list_tag], ptr %10, i64 0, i64 0, !dbg !6649
  call void @llvm.va_end(ptr %86), !dbg !6649
  %87 = getelementptr inbounds %class.LogSection, ptr %13, i32 0, i32 1, !dbg !6650
  %88 = load i32, ptr %87, align 8, !dbg !6650, !tbaa !6619
  switch i32 %88, label %91 [
    i32 1, label %89
    i32 2, label %89
    i32 3, label %89
  ], !dbg !6651

89:                                               ; preds = %85, %85, %85
  %90 = getelementptr inbounds %class.LogSection, ptr %13, i32 0, i32 2, !dbg !6652
  store i8 1, ptr %90, align 4, !dbg !6654, !tbaa !6655
  br label %93, !dbg !6656

91:                                               ; preds = %85
  %92 = getelementptr inbounds %class.LogSection, ptr %13, i32 0, i32 2, !dbg !6657
  store i8 0, ptr %92, align 4, !dbg !6658, !tbaa !6655
  br label %93, !dbg !6659

93:                                               ; preds = %91, %89
  call void @llvm.lifetime.end.p0(i64 24, ptr %10) #16, !dbg !6660
  ret void, !dbg !6660

94:                                               ; preds = %81, %47
  call void @llvm.lifetime.end.p0(i64 24, ptr %10) #16, !dbg !6660
  br label %95, !dbg !6660

95:                                               ; preds = %94, %43, %39
  call void @_ZN19WorkerThreadSectionD2Ev(ptr noundef nonnull align 8 dereferenceable(56) %13) #16, !dbg !6624
  br label %96, !dbg !6624

96:                                               ; preds = %95
  %97 = load ptr, ptr %8, align 8, !dbg !6624
  %98 = load i32, ptr %9, align 4, !dbg !6624
  %99 = insertvalue { ptr, i32 } poison, ptr %97, 0, !dbg !6624
  %100 = insertvalue { ptr, i32 } %99, i32 %98, 1, !dbg !6624
  resume { ptr, i32 } %100, !dbg !6624

101:                                              ; preds = %78
  unreachable
}

; Function Attrs: uwtable
define linkonce_odr dso_local void @_ZN19WorkerThreadSectionC2Ei(ptr noundef nonnull align 8 dereferenceable(56) %0, i32 noundef %1) unnamed_addr #0 comdat align 2 !dbg !6661 {
  %3 = alloca ptr, align 8
  %4 = alloca i32, align 4
  store ptr %0, ptr %3, align 8, !tbaa !5343
  call void @llvm.dbg.declare(metadata ptr %3, metadata !6663, metadata !DIExpression()), !dbg !6665
  store i32 %1, ptr %4, align 4, !tbaa !5348
  call void @llvm.dbg.declare(metadata ptr %4, metadata !6664, metadata !DIExpression()), !dbg !6666
  %5 = load ptr, ptr %3, align 8
  %6 = load i32, ptr %4, align 4, !dbg !6667, !tbaa !5348
  call void @_ZN7SectionC2Eil(ptr noundef nonnull align 8 dereferenceable(56) %5, i32 noundef %6, i64 noundef 0), !dbg !6668
  store ptr getelementptr inbounds ({ [6 x ptr] }, ptr @_ZTV19WorkerThreadSection, i32 0, inrange i32 0, i32 2), ptr %5, align 8, !dbg !6669, !tbaa !5359
  ret void, !dbg !6670
}

; Function Attrs: inlinehint mustprogress nounwind uwtable
define linkonce_odr dso_local noundef i32 @_Z22android_name_to_log_idPKc(ptr noundef %0) #6 comdat !dbg !6671 {
  %2 = alloca ptr, align 8
  store ptr %0, ptr %2, align 8, !tbaa !5343
  call void @llvm.dbg.declare(metadata ptr %2, metadata !6676, metadata !DIExpression()), !dbg !6677
  ret i32 0, !dbg !6678
}

; Function Attrs: nounwind willreturn memory(read)
declare !dbg !6679 i32 @strcmp(ptr noundef, ptr noundef) #14

; Function Attrs: uwtable
define dso_local void @_ZN16TombstoneSectionC2EiPKcl(ptr noundef nonnull align 8 dereferenceable(64) %0, i32 noundef %1, ptr noundef %2, i64 noundef %3) unnamed_addr #0 align 2 personality ptr @__gxx_personality_v0 !dbg !6680 {
  %5 = alloca ptr, align 8
  %6 = alloca i32, align 4
  %7 = alloca ptr, align 8
  %8 = alloca i64, align 8
  %9 = alloca %class.String8, align 8
  %10 = alloca ptr, align 8
  %11 = alloca i32, align 4
  store ptr %0, ptr %5, align 8, !tbaa !5343
  call void @llvm.dbg.declare(metadata ptr %5, metadata !6687, metadata !DIExpression()), !dbg !6692
  store i32 %1, ptr %6, align 4, !tbaa !5348
  call void @llvm.dbg.declare(metadata ptr %6, metadata !6689, metadata !DIExpression()), !dbg !6693
  store ptr %2, ptr %7, align 8, !tbaa !5343
  call void @llvm.dbg.declare(metadata ptr %7, metadata !6690, metadata !DIExpression()), !dbg !6694
  store i64 %3, ptr %8, align 8, !tbaa !5352
  call void @llvm.dbg.declare(metadata ptr %8, metadata !6691, metadata !DIExpression()), !dbg !6695
  %12 = load ptr, ptr %5, align 8
  %13 = load i32, ptr %6, align 4, !dbg !6696, !tbaa !5348
  %14 = load i64, ptr %8, align 8, !dbg !6697, !tbaa !5352
  call void @_ZN19WorkerThreadSectionC2Eil(ptr noundef nonnull align 8 dereferenceable(56) %12, i32 noundef %13, i64 noundef %14), !dbg !6698
  store ptr getelementptr inbounds ({ [6 x ptr] }, ptr @_ZTV16TombstoneSection, i32 0, inrange i32 0, i32 2), ptr %12, align 8, !dbg !6699, !tbaa !5359
  %15 = getelementptr inbounds %class.TombstoneSection, ptr %12, i32 0, i32 1, !dbg !6700
  %16 = load ptr, ptr %7, align 8, !dbg !6701, !tbaa !5343
  store ptr %16, ptr %15, align 8, !dbg !6700, !tbaa !6702
  call void @llvm.lifetime.start.p0(i64 32, ptr %9) #16, !dbg !6704
  invoke void @_ZN7String8C2EPKc(ptr noundef nonnull align 8 dereferenceable(32) %9, ptr noundef @.str.7)
          to label %17 unwind label %24, !dbg !6704

17:                                               ; preds = %4
  %18 = getelementptr inbounds %class.Section, ptr %12, i32 0, i32 3, !dbg !6706
  %19 = call noundef nonnull align 8 dereferenceable(32) ptr @_ZN7String8aSEOS_(ptr noundef nonnull align 8 dereferenceable(32) %18, ptr noundef nonnull align 8 dereferenceable(32) %9) #16, !dbg !6707
  call void @_ZN7String8D2Ev(ptr noundef nonnull align 8 dereferenceable(32) %9) #16, !dbg !6706
  call void @llvm.lifetime.end.p0(i64 32, ptr %9) #16, !dbg !6706
  %20 = load ptr, ptr %7, align 8, !dbg !6708, !tbaa !5343
  %21 = getelementptr inbounds %class.Section, ptr %12, i32 0, i32 3, !dbg !6709
  %22 = invoke noundef nonnull align 8 dereferenceable(32) ptr @_ZN7String8pLEPKc(ptr noundef nonnull align 8 dereferenceable(32) %21, ptr noundef %20)
          to label %23 unwind label %28, !dbg !6710

23:                                               ; preds = %17
  ret void, !dbg !6711

24:                                               ; preds = %4
  %25 = landingpad { ptr, i32 }
          cleanup, !dbg !6712
  %26 = extractvalue { ptr, i32 } %25, 0, !dbg !6712
  store ptr %26, ptr %10, align 8, !dbg !6712
  %27 = extractvalue { ptr, i32 } %25, 1, !dbg !6712
  store i32 %27, ptr %11, align 4, !dbg !6712
  call void @llvm.lifetime.end.p0(i64 32, ptr %9) #16, !dbg !6706
  br label %32, !dbg !6706

28:                                               ; preds = %17
  %29 = landingpad { ptr, i32 }
          cleanup, !dbg !6712
  %30 = extractvalue { ptr, i32 } %29, 0, !dbg !6712
  store ptr %30, ptr %10, align 8, !dbg !6712
  %31 = extractvalue { ptr, i32 } %29, 1, !dbg !6712
  store i32 %31, ptr %11, align 4, !dbg !6712
  br label %32, !dbg !6712

32:                                               ; preds = %28, %24
  call void @_ZN19WorkerThreadSectionD2Ev(ptr noundef nonnull align 8 dereferenceable(56) %12) #16, !dbg !6712
  br label %33, !dbg !6712

33:                                               ; preds = %32
  %34 = load ptr, ptr %10, align 8, !dbg !6712
  %35 = load i32, ptr %11, align 4, !dbg !6712
  %36 = insertvalue { ptr, i32 } poison, ptr %34, 0, !dbg !6712
  %37 = insertvalue { ptr, i32 } %36, i32 %35, 1, !dbg !6712
  resume { ptr, i32 } %37, !dbg !6712
}

; Function Attrs: mustprogress uwtable
define dso_local noundef i32 @_ZNK16TombstoneSection12BlockingCallER9unique_fd(ptr noundef nonnull align 8 dereferenceable(64) %0, ptr noundef nonnull align 4 dereferenceable(4) %1) unnamed_addr #5 align 2 personality ptr @__gxx_personality_v0 !dbg !6713 {
  %3 = alloca i32, align 4
  %4 = alloca ptr, align 8
  %5 = alloca ptr, align 8
  %6 = alloca %"class.std::unique_ptr", align 8
  %7 = alloca ptr, align 8
  %8 = alloca i32, align 4
  %9 = alloca %"class.std::set", align 8
  %10 = alloca ptr, align 8
  %11 = alloca i32, align 4
  %12 = alloca %class.ProtoOutputStream, align 1
  %13 = alloca ptr, align 8
  %14 = alloca i32, align 4
  %15 = alloca i32, align 4
  %16 = alloca %"class.std::__cxx11::basic_string", align 8
  %17 = alloca %"class.std::__cxx11::basic_string", align 8
  %18 = alloca i8, align 1
  %19 = alloca %"struct.std::_Rb_tree_const_iterator", align 8
  %20 = alloca %"struct.std::_Rb_tree_const_iterator", align 8
  %21 = alloca %class.Fpipe, align 4
  %22 = alloca i64, align 8
  %23 = alloca i32, align 4
  %24 = alloca i32, align 4
  %25 = alloca %class.FdBuffer, align 1
  %26 = alloca i32, align 4
  %27 = alloca %"class.std::unique_ptr.10", align 8
  %28 = alloca %class.sp.18, align 8
  %29 = alloca %class.sp, align 8
  %30 = alloca i32, align 4
  %31 = alloca i64, align 8
  store ptr %0, ptr %4, align 8, !tbaa !5343
  call void @llvm.dbg.declare(metadata ptr %4, metadata !6720, metadata !DIExpression()), !dbg !6761
  store ptr %1, ptr %5, align 8, !tbaa !5343
  call void @llvm.dbg.declare(metadata ptr %5, metadata !6722, metadata !DIExpression()), !dbg !6762
  %32 = load ptr, ptr %4, align 8
  call void @llvm.lifetime.start.p0(i64 16, ptr %6) #16, !dbg !6763
  call void @llvm.dbg.declare(metadata ptr %6, metadata !6723, metadata !DIExpression()), !dbg !6764
  %33 = call ptr @opendir(ptr noundef @.str.8), !dbg !6765
  call void @llvm.lifetime.start.p0(i64 8, ptr %7) #16, !dbg !6766
  store ptr @closedir, ptr %7, align 8, !dbg !6766, !tbaa !5343
  call void @_ZNSt10unique_ptrI11__dirstreamPFiPS0_EEC2IS3_vEES1_NSt9enable_ifIXntsr19is_lvalue_referenceIT_EE5valueEOS7_E4typeE(ptr noundef nonnull align 8 dereferenceable(16) %6, ptr noundef %33, ptr noundef nonnull align 8 dereferenceable(8) %7) #16, !dbg !6764
  call void @llvm.lifetime.end.p0(i64 8, ptr %7) #16, !dbg !6764
  %34 = call noundef ptr @_ZNKSt10unique_ptrI11__dirstreamPFiPS0_EE3getEv(ptr noundef nonnull align 8 dereferenceable(16) %6) #16, !dbg !6767
  %35 = icmp eq ptr %34, null, !dbg !6769
  br i1 %35, label %36, label %40, !dbg !6770

36:                                               ; preds = %2
  %37 = call ptr @__errno_location() #28, !dbg !6771
  %38 = load i32, ptr %37, align 4, !dbg !6771, !tbaa !5348
  %39 = sub nsw i32 0, %38, !dbg !6773
  store i32 %39, ptr %3, align 4, !dbg !6774
  store i32 1, ptr %8, align 4
  br label %330, !dbg !6774

40:                                               ; preds = %2
  call void @llvm.lifetime.start.p0(i64 48, ptr %9) #16, !dbg !6775
  call void @llvm.dbg.declare(metadata ptr %9, metadata !6724, metadata !DIExpression()), !dbg !6776
  invoke void @_Z24get_interesting_hal_pidsv(ptr sret(%"class.std::set") align 8 %9)
          to label %41 unwind label %55, !dbg !6777

41:                                               ; preds = %40
  call void @llvm.lifetime.start.p0(i64 1, ptr %12) #16, !dbg !6778
  call void @llvm.dbg.declare(metadata ptr %12, metadata !6725, metadata !DIExpression()), !dbg !6779
  call void @llvm.lifetime.start.p0(i64 8, ptr %13) #16, !dbg !6780
  call void @llvm.dbg.declare(metadata ptr %13, metadata !6726, metadata !DIExpression()), !dbg !6781
  call void @llvm.lifetime.start.p0(i64 4, ptr %14) #16, !dbg !6782
  call void @llvm.dbg.declare(metadata ptr %14, metadata !6740, metadata !DIExpression()), !dbg !6783
  store i32 0, ptr %14, align 4, !dbg !6783, !tbaa !5348
  br label %42, !dbg !6784

42:                                               ; preds = %294, %292, %41
  %43 = call noundef ptr @_ZNKSt10unique_ptrI11__dirstreamPFiPS0_EE3getEv(ptr noundef nonnull align 8 dereferenceable(16) %6) #16, !dbg !6785
  %44 = invoke ptr @readdir(ptr noundef %43)
          to label %45 unwind label %59, !dbg !6786

45:                                               ; preds = %42
  store ptr %44, ptr %13, align 8, !dbg !6787, !tbaa !5343
  %46 = icmp ne ptr %44, null, !dbg !6788
  br i1 %46, label %47, label %310, !dbg !6784

47:                                               ; preds = %45
  call void @llvm.lifetime.start.p0(i64 4, ptr %15) #16, !dbg !6789
  call void @llvm.dbg.declare(metadata ptr %15, metadata !6741, metadata !DIExpression()), !dbg !6790
  %48 = load ptr, ptr %13, align 8, !dbg !6791, !tbaa !5343
  %49 = getelementptr inbounds %struct.dirent, ptr %48, i32 0, i32 4, !dbg !6792
  %50 = getelementptr inbounds [256 x i8], ptr %49, i64 0, i64 0, !dbg !6791
  %51 = call i32 @atoi(ptr noundef %50) #26, !dbg !6793
  store i32 %51, ptr %15, align 4, !dbg !6790, !tbaa !5348
  %52 = load i32, ptr %15, align 4, !dbg !6794, !tbaa !5348
  %53 = icmp sle i32 %52, 0, !dbg !6796
  br i1 %53, label %54, label %63, !dbg !6797

54:                                               ; preds = %47
  store i32 2, ptr %8, align 4
  br label %292, !dbg !6798, !llvm.loop !6800

55:                                               ; preds = %40
  %56 = landingpad { ptr, i32 }
          cleanup, !dbg !6802
  %57 = extractvalue { ptr, i32 } %56, 0, !dbg !6802
  store ptr %57, ptr %10, align 8, !dbg !6802
  %58 = extractvalue { ptr, i32 } %56, 1, !dbg !6802
  store i32 %58, ptr %11, align 4, !dbg !6802
  br label %329, !dbg !6802

59:                                               ; preds = %313, %310, %42
  %60 = landingpad { ptr, i32 }
          cleanup, !dbg !6802
  %61 = extractvalue { ptr, i32 } %60, 0, !dbg !6802
  store ptr %61, ptr %10, align 8, !dbg !6802
  %62 = extractvalue { ptr, i32 } %60, 1, !dbg !6802
  store i32 %62, ptr %11, align 4, !dbg !6802
  br label %328, !dbg !6802

63:                                               ; preds = %47
  call void @llvm.lifetime.start.p0(i64 32, ptr %16) #16, !dbg !6803
  call void @llvm.dbg.declare(metadata ptr %16, metadata !6743, metadata !DIExpression()), !dbg !6804
  %64 = load i32, ptr %15, align 4, !dbg !6805, !tbaa !5348
  invoke void (ptr, ptr, ...) @_ZN7android4base12StringPrintfB5cxx11EPKcz(ptr sret(%"class.std::__cxx11::basic_string") align 8 %16, ptr noundef @.str.9, i32 noundef %64)
          to label %65 unwind label %69, !dbg !6806

65:                                               ; preds = %63
  call void @llvm.lifetime.start.p0(i64 32, ptr %17) #16, !dbg !6807
  call void @llvm.dbg.declare(metadata ptr %17, metadata !6744, metadata !DIExpression()), !dbg !6808
  call void @_ZNSt7__cxx1112basic_stringIcSt11char_traitsIcESaIcEEC2Ev(ptr noundef nonnull align 8 dereferenceable(32) %17) #16, !dbg !6808
  %66 = invoke noundef zeroext i1 @_ZN7android4base8ReadlinkERKNSt7__cxx1112basic_stringIcSt11char_traitsIcESaIcEEEPS6_(ptr noundef nonnull align 8 dereferenceable(32) %16, ptr noundef %17)
          to label %67 unwind label %73, !dbg !6809

67:                                               ; preds = %65
  br i1 %66, label %77, label %68, !dbg !6811

68:                                               ; preds = %67
  store i32 2, ptr %8, align 4
  br label %291, !dbg !6812, !llvm.loop !6800

69:                                               ; preds = %63
  %70 = landingpad { ptr, i32 }
          cleanup, !dbg !6814
  %71 = extractvalue { ptr, i32 } %70, 0, !dbg !6814
  store ptr %71, ptr %10, align 8, !dbg !6814
  %72 = extractvalue { ptr, i32 } %70, 1, !dbg !6814
  store i32 %72, ptr %11, align 4, !dbg !6814
  br label %309, !dbg !6814

73:                                               ; preds = %65
  %74 = landingpad { ptr, i32 }
          cleanup, !dbg !6815
  %75 = extractvalue { ptr, i32 } %74, 0, !dbg !6815
  store ptr %75, ptr %10, align 8, !dbg !6815
  %76 = extractvalue { ptr, i32 } %74, 1, !dbg !6815
  store i32 %76, ptr %11, align 4, !dbg !6815
  br label %308, !dbg !6815

77:                                               ; preds = %67
  call void @llvm.lifetime.start.p0(i64 1, ptr %18) #16, !dbg !6816
  call void @llvm.dbg.declare(metadata ptr %18, metadata !6745, metadata !DIExpression()), !dbg !6817
  %78 = invoke noundef zeroext i1 @_ZSteqIcSt11char_traitsIcESaIcEEbRKNSt7__cxx1112basic_stringIT_T0_T1_EEPKS5_(ptr noundef nonnull align 8 dereferenceable(32) %17, ptr noundef @.str.10)
          to label %79 unwind label %88, !dbg !6818

79:                                               ; preds = %77
  br i1 %78, label %83, label %80, !dbg !6820

80:                                               ; preds = %79
  %81 = invoke noundef zeroext i1 @_ZSteqIcSt11char_traitsIcESaIcEEbRKNSt7__cxx1112basic_stringIT_T0_T1_EEPKS5_(ptr noundef nonnull align 8 dereferenceable(32) %17, ptr noundef @.str.11)
          to label %82 unwind label %88, !dbg !6821

82:                                               ; preds = %80
  br i1 %81, label %83, label %98, !dbg !6822

83:                                               ; preds = %82, %79
  %84 = getelementptr inbounds %class.TombstoneSection, ptr %32, i32 0, i32 1, !dbg !6823
  %85 = load ptr, ptr %84, align 8, !dbg !6823, !tbaa !6702
  %86 = icmp ne ptr %85, @.str.12, !dbg !6826
  br i1 %86, label %87, label %92, !dbg !6827

87:                                               ; preds = %83
  store i32 2, ptr %8, align 4
  br label %290, !dbg !6828, !llvm.loop !6800

88:                                               ; preds = %98, %92, %80, %77
  %89 = landingpad { ptr, i32 }
          cleanup, !dbg !6829
  %90 = extractvalue { ptr, i32 } %89, 0, !dbg !6829
  store ptr %90, ptr %10, align 8, !dbg !6829
  %91 = extractvalue { ptr, i32 } %89, 1, !dbg !6829
  store i32 %91, ptr %11, align 4, !dbg !6829
  br label %307, !dbg !6829

92:                                               ; preds = %83
  %93 = load i32, ptr %15, align 4, !dbg !6830, !tbaa !5348
  %94 = invoke noundef zeroext i1 @_Z8IsZygotei(i32 noundef %93)
          to label %95 unwind label %88, !dbg !6832

95:                                               ; preds = %92
  br i1 %94, label %96, label %97, !dbg !6833

96:                                               ; preds = %95
  store i32 2, ptr %8, align 4
  br label %290, !dbg !6834, !llvm.loop !6800

97:                                               ; preds = %95
  store i8 1, ptr %18, align 1, !dbg !6836, !tbaa !5617
  br label %128, !dbg !6837

98:                                               ; preds = %82
  %99 = call noundef ptr @_ZNKSt7__cxx1112basic_stringIcSt11char_traitsIcESaIcEE5c_strEv(ptr noundef nonnull align 8 dereferenceable(32) %17) #16, !dbg !6838
  %100 = invoke noundef zeroext i1 @_Z25should_dump_native_tracesPKc(ptr noundef %99)
          to label %101 unwind label %88, !dbg !6840

101:                                              ; preds = %98
  br i1 %100, label %102, label %108, !dbg !6841

102:                                              ; preds = %101
  %103 = getelementptr inbounds %class.TombstoneSection, ptr %32, i32 0, i32 1, !dbg !6842
  %104 = load ptr, ptr %103, align 8, !dbg !6842, !tbaa !6702
  %105 = icmp ne ptr %104, @.str.13, !dbg !6845
  br i1 %105, label %106, label %107, !dbg !6846

106:                                              ; preds = %102
  store i32 2, ptr %8, align 4
  br label %290, !dbg !6847, !llvm.loop !6800

107:                                              ; preds = %102
  store i8 0, ptr %18, align 1, !dbg !6848, !tbaa !5617
  br label %127, !dbg !6849

108:                                              ; preds = %101
  call void @llvm.lifetime.start.p0(i64 8, ptr %19) #16, !dbg !6850
  %109 = invoke ptr @_ZNKSt3setIiSt4lessIiESaIiEE4findERKi(ptr noundef nonnull align 8 dereferenceable(48) %9, ptr noundef nonnull align 4 dereferenceable(4) %15)
          to label %110 unwind label %120, !dbg !6852

110:                                              ; preds = %108
  %111 = getelementptr inbounds %"struct.std::_Rb_tree_const_iterator", ptr %19, i32 0, i32 0, !dbg !6852
  store ptr %109, ptr %111, align 8, !dbg !6852
  call void @llvm.lifetime.start.p0(i64 8, ptr %20) #16, !dbg !6853
  %112 = call ptr @_ZNKSt3setIiSt4lessIiESaIiEE3endEv(ptr noundef nonnull align 8 dereferenceable(48) %9) #16, !dbg !6854
  %113 = getelementptr inbounds %"struct.std::_Rb_tree_const_iterator", ptr %20, i32 0, i32 0, !dbg !6854
  store ptr %112, ptr %113, align 8, !dbg !6854
  %114 = call noundef zeroext i1 @_ZStneRKSt23_Rb_tree_const_iteratorIiES2_(ptr noundef nonnull align 8 dereferenceable(8) %19, ptr noundef nonnull align 8 dereferenceable(8) %20) #16, !dbg !6855
  call void @llvm.lifetime.end.p0(i64 8, ptr %20) #16, !dbg !6850
  call void @llvm.lifetime.end.p0(i64 8, ptr %19) #16, !dbg !6850
  br i1 %114, label %115, label %125, !dbg !6856

115:                                              ; preds = %110
  %116 = getelementptr inbounds %class.TombstoneSection, ptr %32, i32 0, i32 1, !dbg !6857
  %117 = load ptr, ptr %116, align 8, !dbg !6857, !tbaa !6702
  %118 = icmp ne ptr %117, @.str.14, !dbg !6860
  br i1 %118, label %119, label %124, !dbg !6861

119:                                              ; preds = %115
  store i32 2, ptr %8, align 4
  br label %290, !dbg !6862, !llvm.loop !6800

120:                                              ; preds = %108
  %121 = landingpad { ptr, i32 }
          cleanup, !dbg !6863
  %122 = extractvalue { ptr, i32 } %121, 0, !dbg !6863
  store ptr %122, ptr %10, align 8, !dbg !6863
  %123 = extractvalue { ptr, i32 } %121, 1, !dbg !6863
  store i32 %123, ptr %11, align 4, !dbg !6863
  call void @llvm.lifetime.end.p0(i64 8, ptr %19) #16, !dbg !6850
  br label %307, !dbg !6850

124:                                              ; preds = %115
  store i8 0, ptr %18, align 1, !dbg !6864, !tbaa !5617
  br label %126, !dbg !6865

125:                                              ; preds = %110
  store i32 2, ptr %8, align 4
  br label %290, !dbg !6866, !llvm.loop !6800

126:                                              ; preds = %124
  br label %127

127:                                              ; preds = %126, %107
  br label %128

128:                                              ; preds = %127, %97
  call void @llvm.lifetime.start.p0(i64 8, ptr %21) #16, !dbg !6868
  call void @llvm.dbg.declare(metadata ptr %21, metadata !6746, metadata !DIExpression()), !dbg !6869
  invoke void @_ZN5FpipeC2Ev(ptr noundef nonnull align 4 dereferenceable(8) %21)
          to label %129 unwind label %136, !dbg !6869

129:                                              ; preds = %128
  %130 = invoke noundef zeroext i1 @_ZN5Fpipe4initEv(ptr noundef nonnull align 4 dereferenceable(8) %21)
          to label %131 unwind label %136, !dbg !6870

131:                                              ; preds = %129
  br i1 %130, label %140, label %132, !dbg !6872

132:                                              ; preds = %131
  %133 = call ptr @__errno_location() #28, !dbg !6873
  %134 = load i32, ptr %133, align 4, !dbg !6873, !tbaa !5348
  %135 = sub nsw i32 0, %134, !dbg !6875
  store i32 %135, ptr %14, align 4, !dbg !6876, !tbaa !5348
  store i32 3, ptr %8, align 4
  br label %289, !dbg !6877

136:                                              ; preds = %129, %128
  %137 = landingpad { ptr, i32 }
          cleanup, !dbg !6814
  %138 = extractvalue { ptr, i32 } %137, 0, !dbg !6814
  store ptr %138, ptr %10, align 8, !dbg !6814
  %139 = extractvalue { ptr, i32 } %137, 1, !dbg !6814
  store i32 %139, ptr %11, align 4, !dbg !6814
  br label %306, !dbg !6814

140:                                              ; preds = %131
  call void @llvm.lifetime.start.p0(i64 8, ptr %22) #16, !dbg !6878
  call void @llvm.dbg.declare(metadata ptr %22, metadata !6747, metadata !DIExpression()), !dbg !6879
  %141 = invoke noundef i64 @_Z8Nanotimev()
          to label %142 unwind label %147, !dbg !6880

142:                                              ; preds = %140
  store i64 %141, ptr %22, align 8, !dbg !6879, !tbaa !5352
  call void @llvm.lifetime.start.p0(i64 4, ptr %23) #16, !dbg !6881
  call void @llvm.dbg.declare(metadata ptr %23, metadata !6748, metadata !DIExpression()), !dbg !6882
  %143 = call i32 @fork() #16, !dbg !6883
  store i32 %143, ptr %23, align 4, !dbg !6882, !tbaa !5348
  %144 = load i32, ptr %23, align 4, !dbg !6884, !tbaa !5348
  %145 = icmp slt i32 %144, 0, !dbg !6885
  br i1 %145, label %146, label %151, !dbg !6886

146:                                              ; preds = %142
  store i32 3, ptr %8, align 4
  br label %288, !dbg !6887

147:                                              ; preds = %140
  %148 = landingpad { ptr, i32 }
          cleanup, !dbg !6814
  %149 = extractvalue { ptr, i32 } %148, 0, !dbg !6814
  store ptr %149, ptr %10, align 8, !dbg !6814
  %150 = extractvalue { ptr, i32 } %148, 1, !dbg !6814
  store i32 %150, ptr %11, align 4, !dbg !6814
  br label %305, !dbg !6814

151:                                              ; preds = %142
  %152 = load i32, ptr %23, align 4, !dbg !6889, !tbaa !5348
  %153 = icmp eq i32 %152, 0, !dbg !6890
  br i1 %153, label %154, label %195, !dbg !6891

154:                                              ; preds = %151
  %155 = invoke noundef nonnull align 4 dereferenceable(4) ptr @_ZN5Fpipe6readFdEv(ptr noundef nonnull align 4 dereferenceable(8) %21)
          to label %156 unwind label %180, !dbg !6892

156:                                              ; preds = %154
  invoke void @_ZN9unique_fd5resetEi(ptr noundef nonnull align 4 dereferenceable(4) %155, i32 noundef -1)
          to label %157 unwind label %180, !dbg !6893

157:                                              ; preds = %156
  call void @llvm.lifetime.start.p0(i64 4, ptr %24) #16, !dbg !6894
  call void @llvm.dbg.declare(metadata ptr %24, metadata !6749, metadata !DIExpression()), !dbg !6895
  %158 = load i32, ptr %15, align 4, !dbg !6896, !tbaa !5348
  %159 = load i8, ptr %18, align 1, !dbg !6897, !tbaa !5617, !range !5511, !noundef !171
  %160 = trunc i8 %159 to i1, !dbg !6897
  %161 = zext i1 %160 to i64, !dbg !6897
  %162 = select i1 %160, i32 1, i32 2, !dbg !6897
  %163 = load i8, ptr %18, align 1, !dbg !6898, !tbaa !5617, !range !5511, !noundef !171
  %164 = trunc i8 %163 to i1, !dbg !6898
  %165 = zext i1 %164 to i64, !dbg !6898
  %166 = select i1 %164, i32 5, i32 20, !dbg !6898
  %167 = invoke noundef nonnull align 4 dereferenceable(4) ptr @_ZN5Fpipe7writeFdEv(ptr noundef nonnull align 4 dereferenceable(8) %21)
          to label %168 unwind label %184, !dbg !6899

168:                                              ; preds = %157
  %169 = invoke noundef i32 @_ZNK9unique_fd3getEv(ptr noundef nonnull align 4 dereferenceable(4) %167)
          to label %170 unwind label %184, !dbg !6900

170:                                              ; preds = %168
  %171 = invoke noundef i32 @_Z30dump_backtrace_to_file_timeoutiiii(i32 noundef %158, i32 noundef %162, i32 noundef %166, i32 noundef %169)
          to label %172 unwind label %184, !dbg !6901

172:                                              ; preds = %170
  store i32 %171, ptr %24, align 4, !dbg !6895, !tbaa !5348
  %173 = load i32, ptr %24, align 4, !dbg !6902, !tbaa !5348
  %174 = icmp eq i32 %173, -1, !dbg !6904
  br i1 %174, label %175, label %190, !dbg !6905

175:                                              ; preds = %172
  %176 = call ptr @__errno_location() #28, !dbg !6906
  %177 = load i32, ptr %176, align 4, !dbg !6906, !tbaa !5348
  %178 = icmp eq i32 %177, 0, !dbg !6909
  br i1 %178, label %179, label %188, !dbg !6910

179:                                              ; preds = %175
  br label %189, !dbg !6911

180:                                              ; preds = %198, %196, %156, %154
  %181 = landingpad { ptr, i32 }
          cleanup, !dbg !6913
  %182 = extractvalue { ptr, i32 } %181, 0, !dbg !6913
  store ptr %182, ptr %10, align 8, !dbg !6913
  %183 = extractvalue { ptr, i32 } %181, 1, !dbg !6913
  store i32 %183, ptr %11, align 4, !dbg !6913
  br label %304, !dbg !6913

184:                                              ; preds = %193, %192, %190, %170, %168, %157
  %185 = landingpad { ptr, i32 }
          cleanup, !dbg !6913
  %186 = extractvalue { ptr, i32 } %185, 0, !dbg !6913
  store ptr %186, ptr %10, align 8, !dbg !6913
  %187 = extractvalue { ptr, i32 } %185, 1, !dbg !6913
  store i32 %187, ptr %11, align 4, !dbg !6913
  call void @llvm.lifetime.end.p0(i64 4, ptr %24) #16, !dbg !6914
  br label %304, !dbg !6914

188:                                              ; preds = %175
  br label %189

189:                                              ; preds = %188, %179
  br label %190, !dbg !6915

190:                                              ; preds = %189, %172
  %191 = invoke noundef nonnull align 4 dereferenceable(4) ptr @_ZN5Fpipe7writeFdEv(ptr noundef nonnull align 4 dereferenceable(8) %21)
          to label %192 unwind label %184, !dbg !6916

192:                                              ; preds = %190
  invoke void @_ZN9unique_fd5resetEi(ptr noundef nonnull align 4 dereferenceable(4) %191, i32 noundef -1)
          to label %193 unwind label %184, !dbg !6917

193:                                              ; preds = %192
  invoke void @_exit(i32 noundef 0) #31
          to label %194 unwind label %184, !dbg !6918

194:                                              ; preds = %193
  unreachable, !dbg !6918

195:                                              ; preds = %151
  br label %196

196:                                              ; preds = %195
  %197 = invoke noundef nonnull align 4 dereferenceable(4) ptr @_ZN5Fpipe7writeFdEv(ptr noundef nonnull align 4 dereferenceable(8) %21)
          to label %198 unwind label %180, !dbg !6919

198:                                              ; preds = %196
  invoke void @_ZN9unique_fd5resetEi(ptr noundef nonnull align 4 dereferenceable(4) %197, i32 noundef -1)
          to label %199 unwind label %180, !dbg !6920

199:                                              ; preds = %198
  call void @llvm.lifetime.start.p0(i64 1, ptr %25) #16, !dbg !6921
  call void @llvm.dbg.declare(metadata ptr %25, metadata !6753, metadata !DIExpression()), !dbg !6922
  %200 = invoke noundef nonnull align 4 dereferenceable(4) ptr @_ZN5Fpipe6readFdEv(ptr noundef nonnull align 4 dereferenceable(8) %21)
          to label %201 unwind label %215, !dbg !6923

201:                                              ; preds = %199
  %202 = invoke noundef i32 @_ZNK9unique_fd3getEv(ptr noundef nonnull align 4 dereferenceable(4) %200)
          to label %203 unwind label %215, !dbg !6924

203:                                              ; preds = %201
  %204 = invoke noundef i32 @_ZN8FdBuffer9readFullyEi(ptr noundef nonnull align 1 dereferenceable(1) %25, i32 noundef %202)
          to label %205 unwind label %215, !dbg !6925

205:                                              ; preds = %203
  store i32 %204, ptr %14, align 4, !dbg !6926, !tbaa !5348
  call void @llvm.lifetime.start.p0(i64 4, ptr %26) #16, !dbg !6927
  call void @llvm.dbg.declare(metadata ptr %26, metadata !6754, metadata !DIExpression()), !dbg !6928
  %206 = load i32, ptr %23, align 4, !dbg !6929, !tbaa !5348
  %207 = invoke noundef i32 @_Z10wait_childi(i32 noundef %206)
          to label %208 unwind label %219, !dbg !6930

208:                                              ; preds = %205
  store i32 %207, ptr %26, align 4, !dbg !6928, !tbaa !5348
  %209 = load i32, ptr %14, align 4, !dbg !6931, !tbaa !5348
  %210 = icmp ne i32 %209, 0, !dbg !6933
  br i1 %210, label %211, label %223, !dbg !6934

211:                                              ; preds = %208
  %212 = invoke noundef nonnull align 4 dereferenceable(4) ptr @_ZN5Fpipe6readFdEv(ptr noundef nonnull align 4 dereferenceable(8) %21)
          to label %213 unwind label %219, !dbg !6935

213:                                              ; preds = %211
  invoke void @_ZN9unique_fd5resetEi(ptr noundef nonnull align 4 dereferenceable(4) %212, i32 noundef -1)
          to label %214 unwind label %219, !dbg !6937

214:                                              ; preds = %213
  store i32 3, ptr %8, align 4
  br label %287, !dbg !6938

215:                                              ; preds = %203, %201, %199
  %216 = landingpad { ptr, i32 }
          cleanup, !dbg !6814
  %217 = extractvalue { ptr, i32 } %216, 0, !dbg !6814
  store ptr %217, ptr %10, align 8, !dbg !6814
  %218 = extractvalue { ptr, i32 } %216, 1, !dbg !6814
  store i32 %218, ptr %11, align 4, !dbg !6814
  br label %303, !dbg !6814

219:                                              ; preds = %213, %211, %205
  %220 = landingpad { ptr, i32 }
          cleanup, !dbg !6814
  %221 = extractvalue { ptr, i32 } %220, 0, !dbg !6814
  store ptr %221, ptr %10, align 8, !dbg !6814
  %222 = extractvalue { ptr, i32 } %220, 1, !dbg !6814
  store i32 %222, ptr %11, align 4, !dbg !6814
  br label %302, !dbg !6814

223:                                              ; preds = %208
  %224 = load i32, ptr %26, align 4, !dbg !6939, !tbaa !5348
  %225 = icmp ne i32 %224, 0, !dbg !6941
  br i1 %225, label %226, label %227, !dbg !6942

226:                                              ; preds = %223
  br label %227, !dbg !6943

227:                                              ; preds = %226, %223
  call void @llvm.lifetime.start.p0(i64 8, ptr %27) #16, !dbg !6945
  call void @llvm.dbg.declare(metadata ptr %27, metadata !6755, metadata !DIExpression()), !dbg !6946
  %228 = invoke noundef i64 @_ZNK8FdBuffer4sizeEv(ptr noundef nonnull align 1 dereferenceable(1) %25)
          to label %229 unwind label %255, !dbg !6947

229:                                              ; preds = %227
  invoke void @_ZSt11make_uniqueIA_cENSt9_MakeUniqIT_E7__arrayEm(ptr sret(%"class.std::unique_ptr.10") align 8 %27, i64 noundef %228)
          to label %230 unwind label %255, !dbg !6948

230:                                              ; preds = %229
  call void @llvm.lifetime.start.p0(i64 8, ptr %28) #16, !dbg !6949
  call void @llvm.dbg.declare(metadata ptr %28, metadata !6758, metadata !DIExpression()), !dbg !6950
  call void @llvm.lifetime.start.p0(i64 8, ptr %29) #16, !dbg !6951
  %231 = invoke ptr @_ZN8FdBuffer4dataEv(ptr noundef nonnull align 1 dereferenceable(1) %25)
          to label %232 unwind label %259, !dbg !6952

232:                                              ; preds = %230
  %233 = getelementptr inbounds %class.sp, ptr %29, i32 0, i32 0, !dbg !6952
  store ptr %231, ptr %233, align 8, !dbg !6952
  %234 = invoke noundef ptr @_ZNK2spI13EncodedBufferEptEv(ptr noundef nonnull align 8 dereferenceable(8) %29)
          to label %235 unwind label %259, !dbg !6951

235:                                              ; preds = %232
  %236 = invoke ptr @_ZN13EncodedBuffer4readEv(ptr noundef nonnull align 1 dereferenceable(1) %234)
          to label %237 unwind label %259, !dbg !6953

237:                                              ; preds = %235
  %238 = getelementptr inbounds %class.sp.18, ptr %28, i32 0, i32 0, !dbg !6953
  store ptr %236, ptr %238, align 8, !dbg !6953
  call void @llvm.lifetime.end.p0(i64 8, ptr %29) #16, !dbg !6951
  call void @llvm.lifetime.start.p0(i64 4, ptr %30) #16, !dbg !6954
  call void @llvm.dbg.declare(metadata ptr %30, metadata !6759, metadata !DIExpression()), !dbg !6955
  store i32 0, ptr %30, align 4, !dbg !6955, !tbaa !5348
  br label %239, !dbg !6956

239:                                              ; preds = %252, %237
  %240 = invoke noundef ptr @_ZNK2spI11ProtoReaderEptEv(ptr noundef nonnull align 8 dereferenceable(8) %28)
          to label %241 unwind label %263, !dbg !6957

241:                                              ; preds = %239
  %242 = invoke noundef zeroext i1 @_ZNK11ProtoReader7hasNextEv(ptr noundef nonnull align 1 dereferenceable(1) %240)
          to label %243 unwind label %263, !dbg !6958

243:                                              ; preds = %241
  br i1 %242, label %244, label %267, !dbg !6956

244:                                              ; preds = %243
  %245 = invoke noundef ptr @_ZNK2spI11ProtoReaderEptEv(ptr noundef nonnull align 8 dereferenceable(8) %28)
          to label %246 unwind label %263, !dbg !6959

246:                                              ; preds = %244
  %247 = invoke noundef signext i8 @_ZN11ProtoReader4nextEv(ptr noundef nonnull align 1 dereferenceable(1) %245)
          to label %248 unwind label %263, !dbg !6961

248:                                              ; preds = %246
  %249 = load i32, ptr %30, align 4, !dbg !6962, !tbaa !5348
  %250 = sext i32 %249 to i64, !dbg !6962
  %251 = invoke noundef nonnull align 1 dereferenceable(1) ptr @_ZNKSt10unique_ptrIA_cSt14default_deleteIS0_EEixEm(ptr noundef nonnull align 8 dereferenceable(8) %27, i64 noundef %250)
          to label %252 unwind label %263, !dbg !6963

252:                                              ; preds = %248
  store i8 %247, ptr %251, align 1, !dbg !6964, !tbaa !5854
  %253 = load i32, ptr %30, align 4, !dbg !6965, !tbaa !5348
  %254 = add nsw i32 %253, 1, !dbg !6965
  store i32 %254, ptr %30, align 4, !dbg !6965, !tbaa !5348
  br label %239, !dbg !6956, !llvm.loop !6966

255:                                              ; preds = %229, %227
  %256 = landingpad { ptr, i32 }
          cleanup, !dbg !6814
  %257 = extractvalue { ptr, i32 } %256, 0, !dbg !6814
  store ptr %257, ptr %10, align 8, !dbg !6814
  %258 = extractvalue { ptr, i32 } %256, 1, !dbg !6814
  store i32 %258, ptr %11, align 4, !dbg !6814
  br label %301, !dbg !6814

259:                                              ; preds = %235, %232, %230
  %260 = landingpad { ptr, i32 }
          cleanup, !dbg !6814
  %261 = extractvalue { ptr, i32 } %260, 0, !dbg !6814
  store ptr %261, ptr %10, align 8, !dbg !6814
  %262 = extractvalue { ptr, i32 } %260, 1, !dbg !6814
  store i32 %262, ptr %11, align 4, !dbg !6814
  call void @llvm.lifetime.end.p0(i64 8, ptr %29) #16, !dbg !6951
  br label %300, !dbg !6951

263:                                              ; preds = %248, %246, %244, %241, %239
  %264 = landingpad { ptr, i32 }
          cleanup, !dbg !6814
  %265 = extractvalue { ptr, i32 } %264, 0, !dbg !6814
  store ptr %265, ptr %10, align 8, !dbg !6814
  %266 = extractvalue { ptr, i32 } %264, 1, !dbg !6814
  store i32 %266, ptr %11, align 4, !dbg !6814
  br label %299, !dbg !6814

267:                                              ; preds = %243
  call void @llvm.lifetime.start.p0(i64 8, ptr %31) #16, !dbg !6968
  call void @llvm.dbg.declare(metadata ptr %31, metadata !6760, metadata !DIExpression()), !dbg !6969
  %268 = invoke noundef i64 @_ZN17ProtoOutputStream5startEj(ptr noundef nonnull align 1 dereferenceable(1) %12, i32 noundef 1)
          to label %269 unwind label %295, !dbg !6970

269:                                              ; preds = %267
  store i64 %268, ptr %31, align 8, !dbg !6969, !tbaa !5352
  %270 = load i32, ptr %15, align 4, !dbg !6971, !tbaa !5348
  %271 = sext i32 %270 to i64, !dbg !6971
  invoke void @_ZN17ProtoOutputStream5writeEjl(ptr noundef nonnull align 1 dereferenceable(1) %12, i32 noundef 1, i64 noundef %271)
          to label %272 unwind label %295, !dbg !6972

272:                                              ; preds = %269
  %273 = call noundef ptr @_ZNKSt10unique_ptrIA_cSt14default_deleteIS0_EE3getEv(ptr noundef nonnull align 8 dereferenceable(8) %27) #16, !dbg !6973
  %274 = load i32, ptr %30, align 4, !dbg !6974, !tbaa !5348
  %275 = sext i32 %274 to i64, !dbg !6974
  invoke void @_ZN17ProtoOutputStream5writeEjPKcm(ptr noundef nonnull align 1 dereferenceable(1) %12, i32 noundef 2, ptr noundef %273, i64 noundef %275)
          to label %276 unwind label %295, !dbg !6975

276:                                              ; preds = %272
  %277 = invoke noundef i64 @_Z8Nanotimev()
          to label %278 unwind label %295, !dbg !6976

278:                                              ; preds = %276
  %279 = load i64, ptr %22, align 8, !dbg !6977, !tbaa !5352
  %280 = sub i64 %277, %279, !dbg !6978
  invoke void @_ZN17ProtoOutputStream5writeEjl(ptr noundef nonnull align 1 dereferenceable(1) %12, i32 noundef 3, i64 noundef %280)
          to label %281 unwind label %295, !dbg !6979

281:                                              ; preds = %278
  %282 = load i64, ptr %31, align 8, !dbg !6980, !tbaa !5352
  invoke void @_ZN17ProtoOutputStream3endEm(ptr noundef nonnull align 1 dereferenceable(1) %12, i64 noundef %282)
          to label %283 unwind label %295, !dbg !6981

283:                                              ; preds = %281
  %284 = invoke noundef nonnull align 4 dereferenceable(4) ptr @_ZN5Fpipe6readFdEv(ptr noundef nonnull align 4 dereferenceable(8) %21)
          to label %285 unwind label %295, !dbg !6982

285:                                              ; preds = %283
  invoke void @_ZN9unique_fd5resetEi(ptr noundef nonnull align 4 dereferenceable(4) %284, i32 noundef -1)
          to label %286 unwind label %295, !dbg !6983

286:                                              ; preds = %285
  call void @llvm.lifetime.end.p0(i64 8, ptr %31) #16, !dbg !6801
  call void @llvm.lifetime.end.p0(i64 4, ptr %30) #16, !dbg !6801
  call void @llvm.lifetime.end.p0(i64 8, ptr %28) #16, !dbg !6801
  call void @_ZNSt10unique_ptrIA_cSt14default_deleteIS0_EED2Ev(ptr noundef nonnull align 8 dereferenceable(8) %27) #16, !dbg !6801
  call void @llvm.lifetime.end.p0(i64 8, ptr %27) #16, !dbg !6801
  store i32 0, ptr %8, align 4, !dbg !6801
  br label %287, !dbg !6801

287:                                              ; preds = %286, %214
  call void @llvm.lifetime.end.p0(i64 4, ptr %26) #16, !dbg !6801
  call void @llvm.lifetime.end.p0(i64 1, ptr %25) #16, !dbg !6801
  br label %288

288:                                              ; preds = %287, %146
  call void @llvm.lifetime.end.p0(i64 4, ptr %23) #16, !dbg !6801
  call void @llvm.lifetime.end.p0(i64 8, ptr %22) #16, !dbg !6801
  br label %289

289:                                              ; preds = %288, %132
  call void @llvm.lifetime.end.p0(i64 8, ptr %21) #16, !dbg !6801
  br label %290

290:                                              ; preds = %289, %125, %119, %106, %96, %87
  call void @llvm.lifetime.end.p0(i64 1, ptr %18) #16, !dbg !6801
  br label %291

291:                                              ; preds = %290, %68
  call void @_ZNSt7__cxx1112basic_stringIcSt11char_traitsIcESaIcEED2Ev(ptr noundef nonnull align 8 dereferenceable(32) %17) #16, !dbg !6801
  call void @llvm.lifetime.end.p0(i64 32, ptr %17) #16, !dbg !6801
  call void @_ZNSt7__cxx1112basic_stringIcSt11char_traitsIcESaIcEED2Ev(ptr noundef nonnull align 8 dereferenceable(32) %16) #16, !dbg !6801
  call void @llvm.lifetime.end.p0(i64 32, ptr %16) #16, !dbg !6801
  br label %292

292:                                              ; preds = %291, %54
  call void @llvm.lifetime.end.p0(i64 4, ptr %15) #16, !dbg !6801
  %293 = load i32, ptr %8, align 4
  switch i32 %293, label %337 [
    i32 0, label %294
    i32 2, label %42
    i32 3, label %310
  ]

294:                                              ; preds = %292
  br label %42, !dbg !6784, !llvm.loop !6800

295:                                              ; preds = %285, %283, %281, %278, %276, %272, %269, %267
  %296 = landingpad { ptr, i32 }
          cleanup, !dbg !6814
  %297 = extractvalue { ptr, i32 } %296, 0, !dbg !6814
  store ptr %297, ptr %10, align 8, !dbg !6814
  %298 = extractvalue { ptr, i32 } %296, 1, !dbg !6814
  store i32 %298, ptr %11, align 4, !dbg !6814
  call void @llvm.lifetime.end.p0(i64 8, ptr %31) #16, !dbg !6801
  br label %299, !dbg !6801

299:                                              ; preds = %295, %263
  call void @llvm.lifetime.end.p0(i64 4, ptr %30) #16, !dbg !6801
  br label %300, !dbg !6801

300:                                              ; preds = %299, %259
  call void @llvm.lifetime.end.p0(i64 8, ptr %28) #16, !dbg !6801
  call void @_ZNSt10unique_ptrIA_cSt14default_deleteIS0_EED2Ev(ptr noundef nonnull align 8 dereferenceable(8) %27) #16, !dbg !6801
  br label %301, !dbg !6801

301:                                              ; preds = %300, %255
  call void @llvm.lifetime.end.p0(i64 8, ptr %27) #16, !dbg !6801
  br label %302, !dbg !6801

302:                                              ; preds = %301, %219
  call void @llvm.lifetime.end.p0(i64 4, ptr %26) #16, !dbg !6801
  br label %303, !dbg !6801

303:                                              ; preds = %302, %215
  call void @llvm.lifetime.end.p0(i64 1, ptr %25) #16, !dbg !6801
  br label %304, !dbg !6801

304:                                              ; preds = %303, %184, %180
  call void @llvm.lifetime.end.p0(i64 4, ptr %23) #16, !dbg !6801
  br label %305, !dbg !6801

305:                                              ; preds = %304, %147
  call void @llvm.lifetime.end.p0(i64 8, ptr %22) #16, !dbg !6801
  br label %306, !dbg !6801

306:                                              ; preds = %305, %136
  call void @llvm.lifetime.end.p0(i64 8, ptr %21) #16, !dbg !6801
  br label %307, !dbg !6801

307:                                              ; preds = %306, %120, %88
  call void @llvm.lifetime.end.p0(i64 1, ptr %18) #16, !dbg !6801
  br label %308, !dbg !6801

308:                                              ; preds = %307, %73
  call void @_ZNSt7__cxx1112basic_stringIcSt11char_traitsIcESaIcEED2Ev(ptr noundef nonnull align 8 dereferenceable(32) %17) #16, !dbg !6801
  call void @llvm.lifetime.end.p0(i64 32, ptr %17) #16, !dbg !6801
  call void @_ZNSt7__cxx1112basic_stringIcSt11char_traitsIcESaIcEED2Ev(ptr noundef nonnull align 8 dereferenceable(32) %16) #16, !dbg !6801
  br label %309, !dbg !6801

309:                                              ; preds = %308, %69
  call void @llvm.lifetime.end.p0(i64 32, ptr %16) #16, !dbg !6801
  call void @llvm.lifetime.end.p0(i64 4, ptr %15) #16, !dbg !6801
  br label %328, !dbg !6801

310:                                              ; preds = %292, %45
  %311 = load ptr, ptr %5, align 8, !dbg !6984, !tbaa !5343
  %312 = invoke noundef i32 @_ZNK9unique_fd3getEv(ptr noundef nonnull align 4 dereferenceable(4) %311)
          to label %313 unwind label %59, !dbg !6986

313:                                              ; preds = %310
  %314 = invoke noundef zeroext i1 @_ZN17ProtoOutputStream5flushEi(ptr noundef nonnull align 1 dereferenceable(1) %12, i32 noundef %312)
          to label %315 unwind label %59, !dbg !6987

315:                                              ; preds = %313
  br i1 %314, label %325, label %316, !dbg !6988

316:                                              ; preds = %315
  %317 = call ptr @__errno_location() #28, !dbg !6989
  %318 = load i32, ptr %317, align 4, !dbg !6989, !tbaa !5348
  %319 = icmp eq i32 %318, 32, !dbg !6990
  br i1 %319, label %320, label %325, !dbg !6991

320:                                              ; preds = %316
  %321 = load i32, ptr %14, align 4, !dbg !6992, !tbaa !5348
  %322 = icmp ne i32 %321, 0, !dbg !6995
  br i1 %322, label %323, label %324, !dbg !6996

323:                                              ; preds = %320
  store i32 32, ptr %3, align 4, !dbg !6997
  store i32 1, ptr %8, align 4
  br label %327, !dbg !6997

324:                                              ; preds = %320
  br label %325, !dbg !6999

325:                                              ; preds = %324, %316, %315
  %326 = load i32, ptr %14, align 4, !dbg !7000, !tbaa !5348
  store i32 %326, ptr %3, align 4, !dbg !7001
  store i32 1, ptr %8, align 4
  br label %327, !dbg !7001

327:                                              ; preds = %325, %323
  call void @llvm.lifetime.end.p0(i64 4, ptr %14) #16, !dbg !6802
  call void @llvm.lifetime.end.p0(i64 8, ptr %13) #16, !dbg !6802
  call void @llvm.lifetime.end.p0(i64 1, ptr %12) #16, !dbg !6802
  call void @_ZNSt3setIiSt4lessIiESaIiEED2Ev(ptr noundef nonnull align 8 dereferenceable(48) %9) #16, !dbg !6802
  call void @llvm.lifetime.end.p0(i64 48, ptr %9) #16, !dbg !6802
  br label %330

328:                                              ; preds = %309, %59
  call void @llvm.lifetime.end.p0(i64 4, ptr %14) #16, !dbg !6802
  call void @llvm.lifetime.end.p0(i64 8, ptr %13) #16, !dbg !6802
  call void @llvm.lifetime.end.p0(i64 1, ptr %12) #16, !dbg !6802
  call void @_ZNSt3setIiSt4lessIiESaIiEED2Ev(ptr noundef nonnull align 8 dereferenceable(48) %9) #16, !dbg !6802
  br label %329, !dbg !6802

329:                                              ; preds = %328, %55
  call void @llvm.lifetime.end.p0(i64 48, ptr %9) #16, !dbg !6802
  call void @_ZNSt10unique_ptrI11__dirstreamPFiPS0_EED2Ev(ptr noundef nonnull align 8 dereferenceable(16) %6) #16, !dbg !6802
  call void @llvm.lifetime.end.p0(i64 16, ptr %6) #16, !dbg !6802
  br label %332, !dbg !6802

330:                                              ; preds = %327, %36
  call void @_ZNSt10unique_ptrI11__dirstreamPFiPS0_EED2Ev(ptr noundef nonnull align 8 dereferenceable(16) %6) #16, !dbg !6802
  call void @llvm.lifetime.end.p0(i64 16, ptr %6) #16, !dbg !6802
  %331 = load i32, ptr %3, align 4, !dbg !6802
  ret i32 %331, !dbg !6802

332:                                              ; preds = %329
  %333 = load ptr, ptr %10, align 8, !dbg !6802
  %334 = load i32, ptr %11, align 4, !dbg !6802
  %335 = insertvalue { ptr, i32 } poison, ptr %333, 0, !dbg !6802
  %336 = insertvalue { ptr, i32 } %335, i32 %334, 1, !dbg !6802
  resume { ptr, i32 } %336, !dbg !6802

337:                                              ; preds = %292
  unreachable
}

declare !dbg !7002 ptr @opendir(ptr noundef) #2

declare i32 @closedir(ptr noundef) #2

; Function Attrs: nounwind uwtable
define linkonce_odr dso_local void @_ZNSt10unique_ptrI11__dirstreamPFiPS0_EEC2IS3_vEES1_NSt9enable_ifIXntsr19is_lvalue_referenceIT_EE5valueEOS7_E4typeE(ptr noundef nonnull align 8 dereferenceable(16) %0, ptr noundef %1, ptr noundef nonnull align 8 dereferenceable(8) %2) unnamed_addr #8 comdat align 2 personality ptr @__gxx_personality_v0 !dbg !7007 {
  %4 = alloca ptr, align 8
  %5 = alloca ptr, align 8
  %6 = alloca ptr, align 8
  store ptr %0, ptr %4, align 8, !tbaa !5343
  call void @llvm.dbg.declare(metadata ptr %4, metadata !7020, metadata !DIExpression()), !dbg !7024
  store ptr %1, ptr %5, align 8, !tbaa !5343
  call void @llvm.dbg.declare(metadata ptr %5, metadata !7022, metadata !DIExpression()), !dbg !7025
  store ptr %2, ptr %6, align 8, !tbaa !5343
  call void @llvm.dbg.declare(metadata ptr %6, metadata !7023, metadata !DIExpression()), !dbg !7026
  %7 = load ptr, ptr %4, align 8
  %8 = getelementptr inbounds %"class.std::unique_ptr", ptr %7, i32 0, i32 0, !dbg !7027
  %9 = load ptr, ptr %5, align 8, !dbg !7028, !tbaa !5343
  %10 = load ptr, ptr %6, align 8, !dbg !7029, !tbaa !5343
  invoke void @_ZNSt15__uniq_ptr_dataI11__dirstreamPFiPS0_ELb1ELb1EECI2St15__uniq_ptr_implIS0_S3_EIS3_EES1_OT_(ptr noundef nonnull align 8 dereferenceable(16) %8, ptr noundef %9, ptr noundef nonnull align 8 dereferenceable(8) %10)
          to label %11 unwind label %12, !dbg !7027

11:                                               ; preds = %3
  ret void, !dbg !7030

12:                                               ; preds = %3
  %13 = landingpad { ptr, i32 }
          catch ptr null, !dbg !7027
  %14 = extractvalue { ptr, i32 } %13, 0, !dbg !7027
  call void @__clang_call_terminate(ptr %14) #30, !dbg !7027
  unreachable, !dbg !7027
}

; Function Attrs: mustprogress nounwind uwtable
define linkonce_odr dso_local noundef ptr @_ZNKSt10unique_ptrI11__dirstreamPFiPS0_EE3getEv(ptr noundef nonnull align 8 dereferenceable(16) %0) #10 comdat align 2 personality ptr @__gxx_personality_v0 !dbg !7031 {
  %2 = alloca ptr, align 8
  store ptr %0, ptr %2, align 8, !tbaa !5343
  call void @llvm.dbg.declare(metadata ptr %2, metadata !7033, metadata !DIExpression()), !dbg !7035
  %3 = load ptr, ptr %2, align 8
  %4 = getelementptr inbounds %"class.std::unique_ptr", ptr %3, i32 0, i32 0, !dbg !7036
  %5 = invoke noundef ptr @_ZNKSt15__uniq_ptr_implI11__dirstreamPFiPS0_EE6_M_ptrEv(ptr noundef nonnull align 8 dereferenceable(16) %4)
          to label %6 unwind label %7, !dbg !7037

6:                                                ; preds = %1
  ret ptr %5, !dbg !7038

7:                                                ; preds = %1
  %8 = landingpad { ptr, i32 }
          catch ptr null, !dbg !7037
  %9 = extractvalue { ptr, i32 } %8, 0, !dbg !7037
  call void @__clang_call_terminate(ptr %9) #30, !dbg !7037
  unreachable, !dbg !7037
}

; Function Attrs: inlinehint mustprogress nounwind uwtable
define linkonce_odr dso_local void @_Z24get_interesting_hal_pidsv(ptr noalias sret(%"class.std::set") align 8 %0) #6 comdat !dbg !7039 {
  %2 = alloca ptr, align 8
  store ptr %0, ptr %2, align 8
  call void @llvm.memset.p0.i64(ptr align 8 %0, i8 0, i64 48, i1 false), !dbg !7042
  call void @_ZNSt3setIiSt4lessIiESaIiEEC2Ev(ptr noundef nonnull align 8 dereferenceable(48) %0) #16, !dbg !7042
  ret void, !dbg !7043
}

declare !dbg !7044 ptr @readdir(ptr noundef) #2

; Function Attrs: inlinehint mustprogress nounwind willreturn memory(read) uwtable
define available_externally i32 @atoi(ptr noundef nonnull %0) #17 !dbg !4838 {
  %2 = alloca ptr, align 8
  store ptr %0, ptr %2, align 8, !tbaa !5343
  call void @llvm.dbg.declare(metadata ptr %2, metadata !4842, metadata !DIExpression()), !dbg !7047
  %3 = load ptr, ptr %2, align 8, !dbg !7048, !tbaa !5343
  %4 = call i64 @strtol(ptr noundef %3, ptr noundef null, i32 noundef 10) #16, !dbg !7049
  %5 = trunc i64 %4 to i32, !dbg !7049
  ret i32 %5, !dbg !7050
}

; Function Attrs: inlinehint mustprogress uwtable
define linkonce_odr dso_local void @_ZN7android4base12StringPrintfB5cxx11EPKcz(ptr noalias sret(%"class.std::__cxx11::basic_string") align 8 %0, ptr noundef %1, ...) #15 comdat personality ptr @__gxx_personality_v0 !dbg !7051 {
  %3 = alloca ptr, align 8
  %4 = alloca ptr, align 8
  %5 = alloca %"class.std::allocator", align 1
  %6 = alloca ptr, align 8
  %7 = alloca i32, align 4
  store ptr %0, ptr %3, align 8
  store ptr %1, ptr %4, align 8, !tbaa !5343
  call void @llvm.dbg.declare(metadata ptr %4, metadata !7056, metadata !DIExpression()), !dbg !7057
  call void @llvm.lifetime.start.p0(i64 1, ptr %5) #16, !dbg !7058
  call void @_ZNSaIcEC2Ev(ptr noundef nonnull align 1 dereferenceable(1) %5) #16, !dbg !7058
  invoke void @_ZNSt7__cxx1112basic_stringIcSt11char_traitsIcESaIcEEC2IS3_EEPKcRKS3_(ptr noundef nonnull align 8 dereferenceable(32) %0, ptr noundef @.str.22, ptr noundef nonnull align 1 dereferenceable(1) %5)
          to label %8 unwind label %9, !dbg !7058

8:                                                ; preds = %2
  call void @_ZN9__gnu_cxx13new_allocatorIcED2Ev(ptr noundef nonnull align 1 dereferenceable(1) %5) #16, !dbg !7059
  call void @llvm.lifetime.end.p0(i64 1, ptr %5) #16, !dbg !7059
  ret void, !dbg !7059

9:                                                ; preds = %2
  %10 = landingpad { ptr, i32 }
          cleanup, !dbg !7060
  %11 = extractvalue { ptr, i32 } %10, 0, !dbg !7060
  store ptr %11, ptr %6, align 8, !dbg !7060
  %12 = extractvalue { ptr, i32 } %10, 1, !dbg !7060
  store i32 %12, ptr %7, align 4, !dbg !7060
  call void @_ZN9__gnu_cxx13new_allocatorIcED2Ev(ptr noundef nonnull align 1 dereferenceable(1) %5) #16, !dbg !7059
  call void @llvm.lifetime.end.p0(i64 1, ptr %5) #16, !dbg !7059
  br label %13, !dbg !7059

13:                                               ; preds = %9
  %14 = load ptr, ptr %6, align 8, !dbg !7059
  %15 = load i32, ptr %7, align 4, !dbg !7059
  %16 = insertvalue { ptr, i32 } poison, ptr %14, 0, !dbg !7059
  %17 = insertvalue { ptr, i32 } %16, i32 %15, 1, !dbg !7059
  resume { ptr, i32 } %17, !dbg !7059
}

; Function Attrs: inlinehint mustprogress nounwind uwtable
define linkonce_odr dso_local noundef zeroext i1 @_ZN7android4base8ReadlinkERKNSt7__cxx1112basic_stringIcSt11char_traitsIcESaIcEEEPS6_(ptr noundef nonnull align 8 dereferenceable(32) %0, ptr noundef %1) #6 comdat !dbg !7061 {
  %3 = alloca ptr, align 8
  %4 = alloca ptr, align 8
  store ptr %0, ptr %3, align 8, !tbaa !5343
  call void @llvm.dbg.declare(metadata ptr %3, metadata !7065, metadata !DIExpression()), !dbg !7067
  store ptr %1, ptr %4, align 8, !tbaa !5343
  call void @llvm.dbg.declare(metadata ptr %4, metadata !7066, metadata !DIExpression()), !dbg !7068
  ret i1 true, !dbg !7069
}

; Function Attrs: inlinehint mustprogress nounwind uwtable
define linkonce_odr dso_local noundef zeroext i1 @_ZSteqIcSt11char_traitsIcESaIcEEbRKNSt7__cxx1112basic_stringIT_T0_T1_EEPKS5_(ptr noundef nonnull align 8 dereferenceable(32) %0, ptr noundef %1) #6 comdat !dbg !7070 {
  %3 = alloca ptr, align 8
  %4 = alloca ptr, align 8
  store ptr %0, ptr %3, align 8, !tbaa !5343
  call void @llvm.dbg.declare(metadata ptr %3, metadata !7074, metadata !DIExpression()), !dbg !7078
  store ptr %1, ptr %4, align 8, !tbaa !5343
  call void @llvm.dbg.declare(metadata ptr %4, metadata !7075, metadata !DIExpression()), !dbg !7079
  %5 = load ptr, ptr %3, align 8, !dbg !7080, !tbaa !5343
  %6 = load ptr, ptr %4, align 8, !dbg !7081, !tbaa !5343
  %7 = call noundef i32 @_ZNKSt7__cxx1112basic_stringIcSt11char_traitsIcESaIcEE7compareEPKc(ptr noundef nonnull align 8 dereferenceable(32) %5, ptr noundef %6) #16, !dbg !7082
  %8 = icmp eq i32 %7, 0, !dbg !7083
  ret i1 %8, !dbg !7084
}

; Function Attrs: inlinehint mustprogress nounwind uwtable
define linkonce_odr dso_local noundef zeroext i1 @_Z8IsZygotei(i32 noundef %0) #6 comdat !dbg !7085 {
  %2 = alloca i32, align 4
  store i32 %0, ptr %2, align 4, !tbaa !5348
  call void @llvm.dbg.declare(metadata ptr %2, metadata !7089, metadata !DIExpression()), !dbg !7090
  ret i1 false, !dbg !7091
}

; Function Attrs: inlinehint mustprogress nounwind uwtable
define linkonce_odr dso_local noundef zeroext i1 @_Z25should_dump_native_tracesPKc(ptr noundef %0) #6 comdat !dbg !7092 {
  %2 = alloca ptr, align 8
  store ptr %0, ptr %2, align 8, !tbaa !5343
  call void @llvm.dbg.declare(metadata ptr %2, metadata !7094, metadata !DIExpression()), !dbg !7095
  ret i1 true, !dbg !7096
}

; Function Attrs: mustprogress nounwind uwtable
define available_externally noundef ptr @_ZNKSt7__cxx1112basic_stringIcSt11char_traitsIcESaIcEE5c_strEv(ptr noundef nonnull align 8 dereferenceable(32) %0) #10 align 2 !dbg !7097 {
  %2 = alloca ptr, align 8
  store ptr %0, ptr %2, align 8, !tbaa !5343
  call void @llvm.dbg.declare(metadata ptr %2, metadata !7099, metadata !DIExpression()), !dbg !7101
  %3 = load ptr, ptr %2, align 8
  %4 = call noundef ptr @_ZNKSt7__cxx1112basic_stringIcSt11char_traitsIcESaIcEE7_M_dataEv(ptr noundef nonnull align 8 dereferenceable(32) %3), !dbg !7102
  ret ptr %4, !dbg !7103
}

; Function Attrs: mustprogress nounwind uwtable
define linkonce_odr dso_local noundef zeroext i1 @_ZStneRKSt23_Rb_tree_const_iteratorIiES2_(ptr noundef nonnull align 8 dereferenceable(8) %0, ptr noundef nonnull align 8 dereferenceable(8) %1) #10 comdat !dbg !7104 {
  %3 = alloca ptr, align 8
  %4 = alloca ptr, align 8
  store ptr %0, ptr %3, align 8, !tbaa !5343
  call void @llvm.dbg.declare(metadata ptr %3, metadata !7110, metadata !DIExpression()), !dbg !7112
  store ptr %1, ptr %4, align 8, !tbaa !5343
  call void @llvm.dbg.declare(metadata ptr %4, metadata !7111, metadata !DIExpression()), !dbg !7113
  %5 = load ptr, ptr %3, align 8, !dbg !7114, !tbaa !5343
  %6 = getelementptr inbounds %"struct.std::_Rb_tree_const_iterator", ptr %5, i32 0, i32 0, !dbg !7115
  %7 = load ptr, ptr %6, align 8, !dbg !7115, !tbaa !7116
  %8 = load ptr, ptr %4, align 8, !dbg !7118, !tbaa !5343
  %9 = getelementptr inbounds %"struct.std::_Rb_tree_const_iterator", ptr %8, i32 0, i32 0, !dbg !7119
  %10 = load ptr, ptr %9, align 8, !dbg !7119, !tbaa !7116
  %11 = icmp ne ptr %7, %10, !dbg !7120
  ret i1 %11, !dbg !7121
}

; Function Attrs: mustprogress uwtable
define linkonce_odr dso_local ptr @_ZNKSt3setIiSt4lessIiESaIiEE4findERKi(ptr noundef nonnull align 8 dereferenceable(48) %0, ptr noundef nonnull align 4 dereferenceable(4) %1) #5 comdat align 2 !dbg !7122 {
  %3 = alloca %"struct.std::_Rb_tree_const_iterator", align 8
  %4 = alloca ptr, align 8
  %5 = alloca ptr, align 8
  store ptr %0, ptr %4, align 8, !tbaa !5343
  call void @llvm.dbg.declare(metadata ptr %4, metadata !7124, metadata !DIExpression()), !dbg !7127
  store ptr %1, ptr %5, align 8, !tbaa !5343
  call void @llvm.dbg.declare(metadata ptr %5, metadata !7126, metadata !DIExpression()), !dbg !7128
  %6 = load ptr, ptr %4, align 8
  %7 = getelementptr inbounds %"class.std::set", ptr %6, i32 0, i32 0, !dbg !7129
  %8 = load ptr, ptr %5, align 8, !dbg !7130, !tbaa !5343
  %9 = call ptr @_ZNKSt8_Rb_treeIiiSt9_IdentityIiESt4lessIiESaIiEE4findERKi(ptr noundef nonnull align 8 dereferenceable(48) %7, ptr noundef nonnull align 4 dereferenceable(4) %8), !dbg !7131
  %10 = getelementptr inbounds %"struct.std::_Rb_tree_const_iterator", ptr %3, i32 0, i32 0, !dbg !7131
  store ptr %9, ptr %10, align 8, !dbg !7131
  %11 = getelementptr inbounds %"struct.std::_Rb_tree_const_iterator", ptr %3, i32 0, i32 0, !dbg !7132
  %12 = load ptr, ptr %11, align 8, !dbg !7132
  ret ptr %12, !dbg !7132
}

; Function Attrs: mustprogress nounwind uwtable
define linkonce_odr dso_local ptr @_ZNKSt3setIiSt4lessIiESaIiEE3endEv(ptr noundef nonnull align 8 dereferenceable(48) %0) #10 comdat align 2 !dbg !7133 {
  %2 = alloca %"struct.std::_Rb_tree_const_iterator", align 8
  %3 = alloca ptr, align 8
  store ptr %0, ptr %3, align 8, !tbaa !5343
  call void @llvm.dbg.declare(metadata ptr %3, metadata !7135, metadata !DIExpression()), !dbg !7136
  %4 = load ptr, ptr %3, align 8
  %5 = getelementptr inbounds %"class.std::set", ptr %4, i32 0, i32 0, !dbg !7137
  %6 = call ptr @_ZNKSt8_Rb_treeIiiSt9_IdentityIiESt4lessIiESaIiEE3endEv(ptr noundef nonnull align 8 dereferenceable(48) %5) #16, !dbg !7138
  %7 = getelementptr inbounds %"struct.std::_Rb_tree_const_iterator", ptr %2, i32 0, i32 0, !dbg !7138
  store ptr %6, ptr %7, align 8, !dbg !7138
  %8 = getelementptr inbounds %"struct.std::_Rb_tree_const_iterator", ptr %2, i32 0, i32 0, !dbg !7139
  %9 = load ptr, ptr %8, align 8, !dbg !7139
  ret ptr %9, !dbg !7139
}

; Function Attrs: nounwind
declare !dbg !7140 i32 @fork() #7

; Function Attrs: inlinehint mustprogress nounwind uwtable
define linkonce_odr dso_local noundef i32 @_Z30dump_backtrace_to_file_timeoutiiii(i32 noundef %0, i32 noundef %1, i32 noundef %2, i32 noundef %3) #6 comdat !dbg !7144 {
  %5 = alloca i32, align 4
  %6 = alloca i32, align 4
  %7 = alloca i32, align 4
  %8 = alloca i32, align 4
  store i32 %0, ptr %5, align 4, !tbaa !5348
  call void @llvm.dbg.declare(metadata ptr %5, metadata !7148, metadata !DIExpression()), !dbg !7152
  store i32 %1, ptr %6, align 4, !tbaa !5348
  call void @llvm.dbg.declare(metadata ptr %6, metadata !7149, metadata !DIExpression()), !dbg !7153
  store i32 %2, ptr %7, align 4, !tbaa !5348
  call void @llvm.dbg.declare(metadata ptr %7, metadata !7150, metadata !DIExpression()), !dbg !7154
  store i32 %3, ptr %8, align 4, !tbaa !5348
  call void @llvm.dbg.declare(metadata ptr %8, metadata !7151, metadata !DIExpression()), !dbg !7155
  ret i32 0, !dbg !7156
}

; Function Attrs: noreturn
declare !dbg !7157 void @_exit(i32 noundef) #18

; Function Attrs: mustprogress nounwind uwtable
define linkonce_odr dso_local noundef i32 @_ZN8FdBuffer9readFullyEi(ptr noundef nonnull align 1 dereferenceable(1) %0, i32 noundef %1) #10 comdat align 2 !dbg !7158 {
  %3 = alloca ptr, align 8
  %4 = alloca i32, align 4
  store ptr %0, ptr %3, align 8, !tbaa !5343
  call void @llvm.dbg.declare(metadata ptr %3, metadata !7160, metadata !DIExpression()), !dbg !7162
  store i32 %1, ptr %4, align 4, !tbaa !5348
  call void @llvm.dbg.declare(metadata ptr %4, metadata !7161, metadata !DIExpression()), !dbg !7163
  %5 = load ptr, ptr %3, align 8
  ret i32 0, !dbg !7164
}

; Function Attrs: inlinehint mustprogress uwtable
define linkonce_odr dso_local void @_ZSt11make_uniqueIA_cENSt9_MakeUniqIT_E7__arrayEm(ptr noalias sret(%"class.std::unique_ptr.10") align 8 %0, i64 noundef %1) #15 comdat !dbg !7165 {
  %3 = alloca ptr, align 8
  %4 = alloca i64, align 8
  store ptr %0, ptr %3, align 8
  store i64 %1, ptr %4, align 8, !tbaa !5352
  call void @llvm.dbg.declare(metadata ptr %4, metadata !7169, metadata !DIExpression()), !dbg !7170
  %5 = load i64, ptr %4, align 8, !dbg !7171, !tbaa !5352
  %6 = call noalias noundef nonnull ptr @_Znam(i64 noundef %5) #29, !dbg !7172, !heapallocsite !7173
  call void @llvm.memset.p0.i64(ptr align 1 %6, i8 0, i64 %5, i1 false), !dbg !7172
  call void @_ZNSt10unique_ptrIA_cSt14default_deleteIS0_EEC2IPcS2_vbEET_(ptr noundef nonnull align 8 dereferenceable(8) %0, ptr noundef %6) #16, !dbg !7176
  ret void, !dbg !7177
}

; Function Attrs: mustprogress uwtable
define linkonce_odr dso_local ptr @_ZN13EncodedBuffer4readEv(ptr noundef nonnull align 1 dereferenceable(1) %0) #5 comdat align 2 !dbg !7178 {
  %2 = alloca %class.sp.18, align 8
  %3 = alloca ptr, align 8
  store ptr %0, ptr %3, align 8, !tbaa !5343
  call void @llvm.dbg.declare(metadata ptr %3, metadata !7180, metadata !DIExpression()), !dbg !7181
  %4 = load ptr, ptr %3, align 8
  %5 = call noalias noundef nonnull ptr @_Znwm(i64 noundef 1) #29, !dbg !7182, !heapallocsite !1170
  call void @_ZN2spI11ProtoReaderEC2EPS0_(ptr noundef nonnull align 8 dereferenceable(8) %2, ptr noundef %5), !dbg !7183
  %6 = getelementptr inbounds %class.sp.18, ptr %2, i32 0, i32 0, !dbg !7184
  %7 = load ptr, ptr %6, align 8, !dbg !7184
  ret ptr %7, !dbg !7184
}

; Function Attrs: mustprogress nounwind uwtable
define linkonce_odr dso_local noundef ptr @_ZNK2spI11ProtoReaderEptEv(ptr noundef nonnull align 8 dereferenceable(8) %0) #10 comdat align 2 !dbg !7185 {
  %2 = alloca ptr, align 8
  store ptr %0, ptr %2, align 8, !tbaa !5343
  call void @llvm.dbg.declare(metadata ptr %2, metadata !7187, metadata !DIExpression()), !dbg !7189
  %3 = load ptr, ptr %2, align 8
  %4 = getelementptr inbounds %class.sp.18, ptr %3, i32 0, i32 0, !dbg !7190
  %5 = load ptr, ptr %4, align 8, !dbg !7190, !tbaa !7191
  ret ptr %5, !dbg !7193
}

; Function Attrs: mustprogress nounwind uwtable
define linkonce_odr dso_local noundef zeroext i1 @_ZNK11ProtoReader7hasNextEv(ptr noundef nonnull align 1 dereferenceable(1) %0) #10 comdat align 2 !dbg !7194 {
  %2 = alloca ptr, align 8
  store ptr %0, ptr %2, align 8, !tbaa !5343
  call void @llvm.dbg.declare(metadata ptr %2, metadata !7196, metadata !DIExpression()), !dbg !7198
  %3 = load ptr, ptr %2, align 8
  ret i1 false, !dbg !7199
}

; Function Attrs: mustprogress nounwind uwtable
define linkonce_odr dso_local noundef signext i8 @_ZN11ProtoReader4nextEv(ptr noundef nonnull align 1 dereferenceable(1) %0) #10 comdat align 2 !dbg !7200 {
  %2 = alloca ptr, align 8
  store ptr %0, ptr %2, align 8, !tbaa !5343
  call void @llvm.dbg.declare(metadata ptr %2, metadata !7202, metadata !DIExpression()), !dbg !7203
  %3 = load ptr, ptr %2, align 8
  ret i8 0, !dbg !7204
}

; Function Attrs: mustprogress nounwind uwtable
define linkonce_odr dso_local noundef nonnull align 1 dereferenceable(1) ptr @_ZNKSt10unique_ptrIA_cSt14default_deleteIS0_EEixEm(ptr noundef nonnull align 8 dereferenceable(8) %0, i64 noundef %1) #10 comdat align 2 !dbg !7205 {
  %3 = alloca ptr, align 8
  %4 = alloca i64, align 8
  store ptr %0, ptr %3, align 8, !tbaa !5343
  call void @llvm.dbg.declare(metadata ptr %3, metadata !7207, metadata !DIExpression()), !dbg !7210
  store i64 %1, ptr %4, align 8, !tbaa !5352
  call void @llvm.dbg.declare(metadata ptr %4, metadata !7209, metadata !DIExpression()), !dbg !7211
  %5 = load ptr, ptr %3, align 8
  br label %6, !dbg !7212

6:                                                ; preds = %2
  br label %7, !dbg !7213

7:                                                ; preds = %6
  %8 = call noundef ptr @_ZNKSt10unique_ptrIA_cSt14default_deleteIS0_EE3getEv(ptr noundef nonnull align 8 dereferenceable(8) %5) #16, !dbg !7215
  %9 = load i64, ptr %4, align 8, !dbg !7216, !tbaa !5352
  %10 = getelementptr inbounds i8, ptr %8, i64 %9, !dbg !7215
  ret ptr %10, !dbg !7217
}

; Function Attrs: mustprogress nounwind uwtable
define linkonce_odr dso_local noundef i64 @_ZN17ProtoOutputStream5startEj(ptr noundef nonnull align 1 dereferenceable(1) %0, i32 noundef %1) #10 comdat align 2 !dbg !7218 {
  %3 = alloca ptr, align 8
  %4 = alloca i32, align 4
  store ptr %0, ptr %3, align 8, !tbaa !5343
  call void @llvm.dbg.declare(metadata ptr %3, metadata !7220, metadata !DIExpression()), !dbg !7222
  store i32 %1, ptr %4, align 4, !tbaa !5348
  call void @llvm.dbg.declare(metadata ptr %4, metadata !7221, metadata !DIExpression()), !dbg !7223
  %5 = load ptr, ptr %3, align 8
  ret i64 0, !dbg !7224
}

; Function Attrs: mustprogress nounwind uwtable
define linkonce_odr dso_local void @_ZN17ProtoOutputStream5writeEjPKcm(ptr noundef nonnull align 1 dereferenceable(1) %0, i32 noundef %1, ptr noundef %2, i64 noundef %3) #10 comdat align 2 !dbg !7225 {
  %5 = alloca ptr, align 8
  %6 = alloca i32, align 4
  %7 = alloca ptr, align 8
  %8 = alloca i64, align 8
  store ptr %0, ptr %5, align 8, !tbaa !5343
  call void @llvm.dbg.declare(metadata ptr %5, metadata !7227, metadata !DIExpression()), !dbg !7231
  store i32 %1, ptr %6, align 4, !tbaa !5348
  call void @llvm.dbg.declare(metadata ptr %6, metadata !7228, metadata !DIExpression()), !dbg !7232
  store ptr %2, ptr %7, align 8, !tbaa !5343
  call void @llvm.dbg.declare(metadata ptr %7, metadata !7229, metadata !DIExpression()), !dbg !7233
  store i64 %3, ptr %8, align 8, !tbaa !5352
  call void @llvm.dbg.declare(metadata ptr %8, metadata !7230, metadata !DIExpression()), !dbg !7234
  %9 = load ptr, ptr %5, align 8
  ret void, !dbg !7235
}

; Function Attrs: mustprogress nounwind uwtable
define linkonce_odr dso_local noundef ptr @_ZNKSt10unique_ptrIA_cSt14default_deleteIS0_EE3getEv(ptr noundef nonnull align 8 dereferenceable(8) %0) #10 comdat align 2 personality ptr @__gxx_personality_v0 !dbg !7236 {
  %2 = alloca ptr, align 8
  store ptr %0, ptr %2, align 8, !tbaa !5343
  call void @llvm.dbg.declare(metadata ptr %2, metadata !7238, metadata !DIExpression()), !dbg !7239
  %3 = load ptr, ptr %2, align 8
  %4 = getelementptr inbounds %"class.std::unique_ptr.10", ptr %3, i32 0, i32 0, !dbg !7240
  %5 = invoke noundef ptr @_ZNKSt15__uniq_ptr_implIcSt14default_deleteIA_cEE6_M_ptrEv(ptr noundef nonnull align 8 dereferenceable(8) %4)
          to label %6 unwind label %7, !dbg !7241

6:                                                ; preds = %1
  ret ptr %5, !dbg !7242

7:                                                ; preds = %1
  %8 = landingpad { ptr, i32 }
          catch ptr null, !dbg !7241
  %9 = extractvalue { ptr, i32 } %8, 0, !dbg !7241
  call void @__clang_call_terminate(ptr %9) #30, !dbg !7241
  unreachable, !dbg !7241
}

; Function Attrs: mustprogress nounwind uwtable
define linkonce_odr dso_local void @_ZN17ProtoOutputStream3endEm(ptr noundef nonnull align 1 dereferenceable(1) %0, i64 noundef %1) #10 comdat align 2 !dbg !7243 {
  %3 = alloca ptr, align 8
  %4 = alloca i64, align 8
  store ptr %0, ptr %3, align 8, !tbaa !5343
  call void @llvm.dbg.declare(metadata ptr %3, metadata !7245, metadata !DIExpression()), !dbg !7247
  store i64 %1, ptr %4, align 8, !tbaa !5352
  call void @llvm.dbg.declare(metadata ptr %4, metadata !7246, metadata !DIExpression()), !dbg !7248
  %5 = load ptr, ptr %3, align 8
  ret void, !dbg !7249
}

; Function Attrs: nounwind uwtable
define linkonce_odr dso_local void @_ZNSt10unique_ptrIA_cSt14default_deleteIS0_EED2Ev(ptr noundef nonnull align 8 dereferenceable(8) %0) unnamed_addr #8 comdat align 2 personality ptr @__gxx_personality_v0 !dbg !7250 {
  %2 = alloca ptr, align 8
  %3 = alloca ptr, align 8
  store ptr %0, ptr %2, align 8, !tbaa !5343
  call void @llvm.dbg.declare(metadata ptr %2, metadata !7252, metadata !DIExpression()), !dbg !7256
  %4 = load ptr, ptr %2, align 8
  call void @llvm.lifetime.start.p0(i64 8, ptr %3) #16, !dbg !7257
  call void @llvm.dbg.declare(metadata ptr %3, metadata !7254, metadata !DIExpression()), !dbg !7258
  %5 = getelementptr inbounds %"class.std::unique_ptr.10", ptr %4, i32 0, i32 0, !dbg !7259
  %6 = call noundef nonnull align 8 dereferenceable(8) ptr @_ZNSt15__uniq_ptr_implIcSt14default_deleteIA_cEE6_M_ptrEv(ptr noundef nonnull align 8 dereferenceable(8) %5), !dbg !7260
  store ptr %6, ptr %3, align 8, !dbg !7258, !tbaa !5343
  %7 = load ptr, ptr %3, align 8, !dbg !7261, !tbaa !5343
  %8 = load ptr, ptr %7, align 8, !dbg !7261, !tbaa !5343
  %9 = icmp ne ptr %8, null, !dbg !7263
  br i1 %9, label %10, label %15, !dbg !7264

10:                                               ; preds = %1
  %11 = call noundef nonnull align 1 dereferenceable(1) ptr @_ZNSt10unique_ptrIA_cSt14default_deleteIS0_EE11get_deleterEv(ptr noundef nonnull align 8 dereferenceable(8) %4) #16, !dbg !7265
  %12 = load ptr, ptr %3, align 8, !dbg !7266, !tbaa !5343
  %13 = load ptr, ptr %12, align 8, !dbg !7266, !tbaa !5343
  invoke void @_ZNKSt14default_deleteIA_cEclIcEENSt9enable_ifIXsr14is_convertibleIPA_T_PS0_EE5valueEvE4typeEPS4_(ptr noundef nonnull align 1 dereferenceable(1) %11, ptr noundef %13)
          to label %14 unwind label %17, !dbg !7265

14:                                               ; preds = %10
  br label %15, !dbg !7265

15:                                               ; preds = %14, %1
  %16 = load ptr, ptr %3, align 8, !dbg !7267, !tbaa !5343
  store ptr null, ptr %16, align 8, !dbg !7268, !tbaa !5343
  call void @llvm.lifetime.end.p0(i64 8, ptr %3) #16, !dbg !7269
  ret void, !dbg !7269

17:                                               ; preds = %10
